Archive member included because of file (symbol)

../../wlan_bsp_cpu_high/mb_high/lib\libxil.a(xil_printf.o)
                              ./wlan_platform_high/w3_eth.o (xil_printf)
../../wlan_bsp_cpu_high/mb_high/lib\libxil.a(_exception_handler.o)
                              c:/xilinx/14.4/ise_ds/edk/gnu/microblaze/nt64/bin/../lib/gcc/microblaze-xilinx-elf/4.6.2/../../../../microblaze-xilinx-elf/lib/bs/m/le/crt0.o (_exception_handler)
../../wlan_bsp_cpu_high/mb_high/lib\libxil.a(_program_clean.o)
                              c:/xilinx/14.4/ise_ds/edk/gnu/microblaze/nt64/bin/../lib/gcc/microblaze-xilinx-elf/4.6.2/../../../../microblaze-xilinx-elf/lib/bs/m/le/crtinit.o (_program_clean)
../../wlan_bsp_cpu_high/mb_high/lib\libxil.a(_program_init.o)
                              c:/xilinx/14.4/ise_ds/edk/gnu/microblaze/nt64/bin/../lib/gcc/microblaze-xilinx-elf/4.6.2/../../../../microblaze-xilinx-elf/lib/bs/m/le/crtinit.o (_program_init)
../../wlan_bsp_cpu_high/mb_high/lib\libxil.a(hw_exception_handler.o)
                              c:/xilinx/14.4/ise_ds/edk/gnu/microblaze/nt64/bin/../lib/gcc/microblaze-xilinx-elf/4.6.2/../../../../microblaze-xilinx-elf/lib/bs/m/le/crt0.o (_hw_exception_handler)
../../wlan_bsp_cpu_high/mb_high/lib\libxil.a(microblaze_enable_exceptions.o)
                              ./src/wlan_mac_sta.o (microblaze_enable_exceptions)
../../wlan_bsp_cpu_high/mb_high/lib\libxil.a(microblaze_interrupt_handler.o)
                              c:/xilinx/14.4/ise_ds/edk/gnu/microblaze/nt64/bin/../lib/gcc/microblaze-xilinx-elf/4.6.2/../../../../microblaze-xilinx-elf/lib/bs/m/le/crt0.o (_interrupt_handler)
../../wlan_bsp_cpu_high/mb_high/lib\libxil.a(microblaze_interrupts_g.o)
                              ../../wlan_bsp_cpu_high/mb_high/lib\libxil.a(microblaze_interrupt_handler.o) (MB_InterruptVectorTable)
../../wlan_bsp_cpu_high/mb_high/lib\libxil.a(outbyte.o)
                              ../../wlan_bsp_cpu_high/mb_high/lib\libxil.a(xil_printf.o) (outbyte)
../../wlan_bsp_cpu_high/mb_high/lib\libxil.a(xil_cache.o)
                              ./src/wlan_mac_sta.o (Xil_DCacheDisable)
../../wlan_bsp_cpu_high/mb_high/lib\libxil.a(xil_exception.o)
                              ./wlan_mac_high_framework/wlan_mac_high.o (Xil_ExceptionInit)
../../wlan_bsp_cpu_high/mb_high/lib\libxil.a(xil_io.o)
                              ./wlan_mac_high_framework/wlan_exp_node.o (Xil_EndianSwap16)
../../wlan_bsp_cpu_high/mb_high/lib\libxil.a(xaxicdma.o)
                              ./wlan_mac_high_framework/wlan_mac_high.o (XAxiCdma_CfgInitialize)
../../wlan_bsp_cpu_high/mb_high/lib\libxil.a(xaxicdma_bdring.o)
                              ../../wlan_bsp_cpu_high/mb_high/lib\libxil.a(xaxicdma.o) (XAxiCdma_BdRingGetCurrBd)
../../wlan_bsp_cpu_high/mb_high/lib\libxil.a(xaxicdma_intr.o)
                              ../../wlan_bsp_cpu_high/mb_high/lib\libxil.a(xaxicdma.o) (XAxiCdma_IntrGetEnabled)
../../wlan_bsp_cpu_high/mb_high/lib\libxil.a(xaxicdma_sinit.o)
                              ./wlan_mac_high_framework/wlan_mac_high.o (XAxiCdma_LookupConfig)
../../wlan_bsp_cpu_high/mb_high/lib\libxil.a(xaxidma.o)
                              ./wlan_mac_high_framework/wlan_exp_ip_udp/wlan_exp_ip_udp_eth.o (XAxiDma_Reset)
../../wlan_bsp_cpu_high/mb_high/lib\libxil.a(xaxidma_bd.o)
                              ./wlan_platform_high/w3_eth.o (XAxiDma_BdSetLength)
../../wlan_bsp_cpu_high/mb_high/lib\libxil.a(xaxidma_bdring.o)
                              ./wlan_platform_high/w3_eth.o (XAxiDma_BdRingCreate)
../../wlan_bsp_cpu_high/mb_high/lib\libxil.a(xaxidma_sinit.o)
                              ./wlan_platform_high/w3_eth.o (XAxiDma_LookupConfig)
../../wlan_bsp_cpu_high/mb_high/lib\libxil.a(xaxiethernet.o)
                              ./wlan_platform_high/w3_eth.o (XAxiEthernet_Start)
../../wlan_bsp_cpu_high/mb_high/lib\libxil.a(xaxiethernet_sinit.o)
                              ./wlan_platform_high/w3_eth.o (XAxiEthernet_LookupConfig)
../../wlan_bsp_cpu_high/mb_high/lib\libxil.a(xintc.o)
                              ./wlan_mac_high_framework/wlan_mac_high.o (XIntc_Initialize)
../../wlan_bsp_cpu_high/mb_high/lib\libxil.a(xintc_g.o)
                              ../../wlan_bsp_cpu_high/mb_high/lib\libxil.a(xintc.o) (XIntc_ConfigTable)
../../wlan_bsp_cpu_high/mb_high/lib\libxil.a(xintc_l.o)
                              ./wlan_mac_high_framework/wlan_mac_high.o (XIntc_DeviceInterruptHandler)
../../wlan_bsp_cpu_high/mb_high/lib\libxil.a(xintc_options.o)
                              ./wlan_mac_high_framework/wlan_mac_high.o (XIntc_SetOptions)
../../wlan_bsp_cpu_high/mb_high/lib\libxil.a(xgpio.o)
                              ./wlan_platform_high/w3_high_userio.o (XGpio_SetDataDirection)
../../wlan_bsp_cpu_high/mb_high/lib\libxil.a(xgpio_intr.o)
                              ./wlan_platform_high/w3_high_userio.o (XGpio_InterruptGlobalEnable)
../../wlan_bsp_cpu_high/mb_high/lib\libxil.a(xgpio_sinit.o)
                              ./wlan_platform_high/w3_high_userio.o (XGpio_Initialize)
../../wlan_bsp_cpu_high/mb_high/lib\libxil.a(xtmrctr.o)
                              ./wlan_mac_high_framework/wlan_mac_schedule.o (XTmrCtr_Initialize)
../../wlan_bsp_cpu_high/mb_high/lib\libxil.a(xtmrctr_g.o)
                              ../../wlan_bsp_cpu_high/mb_high/lib\libxil.a(xtmrctr.o) (XTmrCtr_ConfigTable)
../../wlan_bsp_cpu_high/mb_high/lib\libxil.a(xtmrctr_intr.o)
                              ./wlan_mac_high_framework/wlan_mac_schedule.o (XTmrCtr_SetHandler)
../../wlan_bsp_cpu_high/mb_high/lib\libxil.a(xtmrctr_l.o)
                              ./wlan_mac_high_framework/wlan_mac_schedule.o (XTmrCtr_Offsets)
../../wlan_bsp_cpu_high/mb_high/lib\libxil.a(xtmrctr_options.o)
                              ./wlan_mac_high_framework/wlan_mac_schedule.o (XTmrCtr_SetOptions)
../../wlan_bsp_cpu_high/mb_high/lib\libxil.a(xuartlite.o)
                              ./wlan_platform_high/w3_uart.o (XUartLite_Recv)
../../wlan_bsp_cpu_high/mb_high/lib\libxil.a(xuartlite_intr.o)
                              ./wlan_platform_high/w3_uart.o (XUartLite_SetRecvHandler)
../../wlan_bsp_cpu_high/mb_high/lib\libxil.a(xuartlite_l.o)
                              ../../wlan_bsp_cpu_high/mb_high/lib\libxil.a(outbyte.o) (XUartLite_SendByte)
../../wlan_bsp_cpu_high/mb_high/lib\libxil.a(xuartlite_sinit.o)
                              ./wlan_platform_high/w3_uart.o (XUartLite_Initialize)
../../wlan_bsp_cpu_high/mb_high/lib\libxil.a(xuartlite_stats.o)
                              ../../wlan_bsp_cpu_high/mb_high/lib\libxil.a(xuartlite.o) (XUartLite_ClearStats)
../../wlan_bsp_cpu_high/mb_high/lib\libxil.a(xmbox.o)
                              ./wlan_mac_common_framework/wlan_mac_mailbox_util.o (XMbox_CfgInitialize)
../../wlan_bsp_cpu_high/mb_high/lib\libxil.a(xmbox_sinit.o)
                              ./wlan_mac_common_framework/wlan_mac_mailbox_util.o (XMbox_LookupConfig)
../../wlan_bsp_cpu_high/mb_high/lib\libxil.a(xmutex.o)
                              ./wlan_mac_common_framework/wlan_mac_pkt_buf_util.o (XMutex_CfgInitialize)
../../wlan_bsp_cpu_high/mb_high/lib\libxil.a(xmutex_sinit.o)
                              ./wlan_mac_common_framework/wlan_mac_pkt_buf_util.o (XMutex_LookupConfig)
../../wlan_bsp_cpu_high/mb_high/lib\libxil.a(w3_iic_eeprom.o)
                              ./wlan_platform_common/w3_common.o (w3_eeprom_read_serial_num)
../../wlan_bsp_cpu_high/mb_high/lib\libxil.a(print.o)
                              ../../wlan_bsp_cpu_high/mb_high/lib\libxil.a(w3_iic_eeprom.o) (print)
../../wlan_bsp_cpu_high/mb_high/lib\libxil.a(xbasic_types.o)
                              ../../wlan_bsp_cpu_high/mb_high/lib\libxil.a(hw_exception_handler.o) (XNullHandler)
../../wlan_bsp_cpu_high/mb_high/lib\libxil.a(microblaze_disable_dcache.o)
                              ../../wlan_bsp_cpu_high/mb_high/lib\libxil.a(xil_cache.o) (microblaze_disable_dcache)
../../wlan_bsp_cpu_high/mb_high/lib\libxil.a(microblaze_disable_exceptions.o)
                              ../../wlan_bsp_cpu_high/mb_high/lib\libxil.a(xil_exception.o) (microblaze_disable_exceptions)
../../wlan_bsp_cpu_high/mb_high/lib\libxil.a(microblaze_disable_icache.o)
                              ../../wlan_bsp_cpu_high/mb_high/lib\libxil.a(xil_cache.o) (microblaze_disable_icache)
../../wlan_bsp_cpu_high/mb_high/lib\libxil.a(microblaze_disable_interrupts.o)
                              ../../wlan_bsp_cpu_high/mb_high/lib\libxil.a(xil_exception.o) (microblaze_disable_interrupts)
../../wlan_bsp_cpu_high/mb_high/lib\libxil.a(microblaze_enable_interrupts.o)
                              ../../wlan_bsp_cpu_high/mb_high/lib\libxil.a(xil_exception.o) (microblaze_enable_interrupts)
../../wlan_bsp_cpu_high/mb_high/lib\libxil.a(microblaze_flush_dcache.o)
                              ../../wlan_bsp_cpu_high/mb_high/lib\libxil.a(xil_cache.o) (microblaze_flush_dcache)
../../wlan_bsp_cpu_high/mb_high/lib\libxil.a(microblaze_invalidate_dcache.o)
                              ../../wlan_bsp_cpu_high/mb_high/lib\libxil.a(xil_cache.o) (microblaze_invalidate_dcache)
../../wlan_bsp_cpu_high/mb_high/lib\libxil.a(microblaze_invalidate_dcache_range.o)
                              ../../wlan_bsp_cpu_high/mb_high/lib\libxil.a(xaxicdma_bdring.o) (microblaze_invalidate_dcache_range)
../../wlan_bsp_cpu_high/mb_high/lib\libxil.a(microblaze_invalidate_icache.o)
                              ../../wlan_bsp_cpu_high/mb_high/lib\libxil.a(xil_cache.o) (microblaze_invalidate_icache)
../../wlan_bsp_cpu_high/mb_high/lib\libxil.a(xil_assert.o)
                              ../../wlan_bsp_cpu_high/mb_high/lib\libxil.a(xaxiethernet.o) (Xil_Assert)
../../wlan_bsp_cpu_high/mb_high/lib\libxil.a(xaxicdma_bd.o)
                              ../../wlan_bsp_cpu_high/mb_high/lib\libxil.a(xaxicdma_bdring.o) (XAxiCdma_BdClone)
../../wlan_bsp_cpu_high/mb_high/lib\libxil.a(xaxicdma_g.o)
                              ../../wlan_bsp_cpu_high/mb_high/lib\libxil.a(xaxicdma_sinit.o) (XAxiCdma_ConfigTable)
../../wlan_bsp_cpu_high/mb_high/lib\libxil.a(xaxidma_g.o)
                              ../../wlan_bsp_cpu_high/mb_high/lib\libxil.a(xaxidma_sinit.o) (XAxiDma_ConfigTable)
../../wlan_bsp_cpu_high/mb_high/lib\libxil.a(xaxiethernet_g.o)
                              ../../wlan_bsp_cpu_high/mb_high/lib\libxil.a(xaxiethernet_sinit.o) (XAxiEthernet_ConfigTable)
../../wlan_bsp_cpu_high/mb_high/lib\libxil.a(xgpio_g.o)
                              ../../wlan_bsp_cpu_high/mb_high/lib\libxil.a(xgpio_sinit.o) (XGpio_ConfigTable)
../../wlan_bsp_cpu_high/mb_high/lib\libxil.a(xuartlite_g.o)
                              ../../wlan_bsp_cpu_high/mb_high/lib\libxil.a(xuartlite_sinit.o) (XUartLite_ConfigTable)
../../wlan_bsp_cpu_high/mb_high/lib\libxil.a(xmbox_g.o)
                              ../../wlan_bsp_cpu_high/mb_high/lib\libxil.a(xmbox_sinit.o) (XMbox_ConfigTable)
../../wlan_bsp_cpu_high/mb_high/lib\libxil.a(xmutex_g.o)
                              ../../wlan_bsp_cpu_high/mb_high/lib\libxil.a(xmutex_sinit.o) (XMutex_ConfigTable)
c:/xilinx/14.4/ise_ds/edk/gnu/microblaze/nt64/bin/../lib/gcc/microblaze-xilinx-elf/4.6.2/bs/m/le\libgcc.a(_fixunsdfdi.o)
                              ./wlan_mac_common_framework/wlan_mac_common.o (__fixunsdfdi)
c:/xilinx/14.4/ise_ds/edk/gnu/microblaze/nt64/bin/../lib/gcc/microblaze-xilinx-elf/4.6.2/bs/m/le\libgcc.a(_floatundidf.o)
                              ./wlan_mac_common_framework/wlan_mac_common.o (__floatundidf)
c:/xilinx/14.4/ise_ds/edk/gnu/microblaze/nt64/bin/../lib/gcc/microblaze-xilinx-elf/4.6.2/bs/m/le\libgcc.a(_udivdi3.o)
                              ./wlan_mac_high_framework/wlan_mac_network_info.o (__udivdi3)
c:/xilinx/14.4/ise_ds/edk/gnu/microblaze/nt64/bin/../lib/gcc/microblaze-xilinx-elf/4.6.2/bs/m/le\libgcc.a(_umoddi3.o)
                              ./wlan_mac_common_framework/wlan_mac_common.o (__umoddi3)
c:/xilinx/14.4/ise_ds/edk/gnu/microblaze/nt64/bin/../lib/gcc/microblaze-xilinx-elf/4.6.2/bs/m/le\libgcc.a(_addsub_df.o)
                              c:/xilinx/14.4/ise_ds/edk/gnu/microblaze/nt64/bin/../lib/gcc/microblaze-xilinx-elf/4.6.2/bs/m/le\libgcc.a(_floatundidf.o) (__adddf3)
c:/xilinx/14.4/ise_ds/edk/gnu/microblaze/nt64/bin/../lib/gcc/microblaze-xilinx-elf/4.6.2/bs/m/le\libgcc.a(_mul_df.o)
                              c:/xilinx/14.4/ise_ds/edk/gnu/microblaze/nt64/bin/../lib/gcc/microblaze-xilinx-elf/4.6.2/bs/m/le\libgcc.a(_fixunsdfdi.o) (__muldf3)
c:/xilinx/14.4/ise_ds/edk/gnu/microblaze/nt64/bin/../lib/gcc/microblaze-xilinx-elf/4.6.2/bs/m/le\libgcc.a(_div_df.o)
                              ./wlan_mac_common_framework/wlan_mac_common.o (__divdf3)
c:/xilinx/14.4/ise_ds/edk/gnu/microblaze/nt64/bin/../lib/gcc/microblaze-xilinx-elf/4.6.2/bs/m/le\libgcc.a(_thenan_df.o)
                              c:/xilinx/14.4/ise_ds/edk/gnu/microblaze/nt64/bin/../lib/gcc/microblaze-xilinx-elf/4.6.2/bs/m/le\libgcc.a(_addsub_df.o) (__thenan_df)
c:/xilinx/14.4/ise_ds/edk/gnu/microblaze/nt64/bin/../lib/gcc/microblaze-xilinx-elf/4.6.2/bs/m/le\libgcc.a(_usi_to_df.o)
                              c:/xilinx/14.4/ise_ds/edk/gnu/microblaze/nt64/bin/../lib/gcc/microblaze-xilinx-elf/4.6.2/bs/m/le\libgcc.a(_fixunsdfdi.o) (__floatunsidf)
c:/xilinx/14.4/ise_ds/edk/gnu/microblaze/nt64/bin/../lib/gcc/microblaze-xilinx-elf/4.6.2/bs/m/le\libgcc.a(modsi3.o)
                              ./src/wlan_mac_sta.o (__modsi3)
c:/xilinx/14.4/ise_ds/edk/gnu/microblaze/nt64/bin/../lib/gcc/microblaze-xilinx-elf/4.6.2/bs/m/le\libgcc.a(udivsi3.o)
                              ./wlan_platform_common/w3_userio_util.o (__udivsi3)
c:/xilinx/14.4/ise_ds/edk/gnu/microblaze/nt64/bin/../lib/gcc/microblaze-xilinx-elf/4.6.2/bs/m/le\libgcc.a(umodsi3.o)
                              ./wlan_platform_common/w3_userio_util.o (__umodsi3)
c:/xilinx/14.4/ise_ds/edk/gnu/microblaze/nt64/bin/../lib/gcc/microblaze-xilinx-elf/4.6.2/bs/m/le\libgcc.a(_muldi3.o)
                              c:/xilinx/14.4/ise_ds/edk/gnu/microblaze/nt64/bin/../lib/gcc/microblaze-xilinx-elf/4.6.2/bs/m/le\libgcc.a(_mul_df.o) (__muldi3)
c:/xilinx/14.4/ise_ds/edk/gnu/microblaze/nt64/bin/../lib/gcc/microblaze-xilinx-elf/4.6.2/bs/m/le\libgcc.a(_clz.o)
                              c:/xilinx/14.4/ise_ds/edk/gnu/microblaze/nt64/bin/../lib/gcc/microblaze-xilinx-elf/4.6.2/bs/m/le\libgcc.a(_udivdi3.o) (__clz_tab)
c:/xilinx/14.4/ise_ds/edk/gnu/microblaze/nt64/bin/../lib/gcc/microblaze-xilinx-elf/4.6.2/bs/m/le\libgcc.a(_clzsi2.o)
                              c:/xilinx/14.4/ise_ds/edk/gnu/microblaze/nt64/bin/../lib/gcc/microblaze-xilinx-elf/4.6.2/bs/m/le\libgcc.a(_usi_to_df.o) (__clzsi2)
c:/xilinx/14.4/ise_ds/edk/gnu/microblaze/nt64/bin/../lib/gcc/microblaze-xilinx-elf/4.6.2/bs/m/le\libgcc.a(_fixunsdfsi.o)
                              c:/xilinx/14.4/ise_ds/edk/gnu/microblaze/nt64/bin/../lib/gcc/microblaze-xilinx-elf/4.6.2/bs/m/le\libgcc.a(_fixunsdfdi.o) (__fixunsdfsi)
c:/xilinx/14.4/ise_ds/edk/gnu/microblaze/nt64/bin/../lib/gcc/microblaze-xilinx-elf/4.6.2/bs/m/le\libgcc.a(_pack_df.o)
                              c:/xilinx/14.4/ise_ds/edk/gnu/microblaze/nt64/bin/../lib/gcc/microblaze-xilinx-elf/4.6.2/bs/m/le\libgcc.a(_addsub_df.o) (__pack_d)
c:/xilinx/14.4/ise_ds/edk/gnu/microblaze/nt64/bin/../lib/gcc/microblaze-xilinx-elf/4.6.2/bs/m/le\libgcc.a(_unpack_df.o)
                              c:/xilinx/14.4/ise_ds/edk/gnu/microblaze/nt64/bin/../lib/gcc/microblaze-xilinx-elf/4.6.2/bs/m/le\libgcc.a(_addsub_df.o) (__unpack_d)
c:/xilinx/14.4/ise_ds/edk/gnu/microblaze/nt64/bin/../lib/gcc/microblaze-xilinx-elf/4.6.2/bs/m/le\libgcc.a(_ge_df.o)
                              c:/xilinx/14.4/ise_ds/edk/gnu/microblaze/nt64/bin/../lib/gcc/microblaze-xilinx-elf/4.6.2/bs/m/le\libgcc.a(_fixunsdfsi.o) (__gedf2)
c:/xilinx/14.4/ise_ds/edk/gnu/microblaze/nt64/bin/../lib/gcc/microblaze-xilinx-elf/4.6.2/bs/m/le\libgcc.a(_df_to_si.o)
                              c:/xilinx/14.4/ise_ds/edk/gnu/microblaze/nt64/bin/../lib/gcc/microblaze-xilinx-elf/4.6.2/bs/m/le\libgcc.a(_fixunsdfsi.o) (__fixdfsi)
c:/xilinx/14.4/ise_ds/edk/gnu/microblaze/nt64/bin/../lib/gcc/microblaze-xilinx-elf/4.6.2/bs/m/le\libgcc.a(_lshrdi3.o)
                              c:/xilinx/14.4/ise_ds/edk/gnu/microblaze/nt64/bin/../lib/gcc/microblaze-xilinx-elf/4.6.2/bs/m/le\libgcc.a(_pack_df.o) (__lshrdi3)
c:/xilinx/14.4/ise_ds/edk/gnu/microblaze/nt64/bin/../lib/gcc/microblaze-xilinx-elf/4.6.2/bs/m/le\libgcc.a(_ashldi3.o)
                              c:/xilinx/14.4/ise_ds/edk/gnu/microblaze/nt64/bin/../lib/gcc/microblaze-xilinx-elf/4.6.2/bs/m/le\libgcc.a(_pack_df.o) (__ashldi3)
c:/xilinx/14.4/ise_ds/edk/gnu/microblaze/nt64/bin/../lib/gcc/microblaze-xilinx-elf/4.6.2/bs/m/le\libgcc.a(_fpcmp_parts_df.o)
                              c:/xilinx/14.4/ise_ds/edk/gnu/microblaze/nt64/bin/../lib/gcc/microblaze-xilinx-elf/4.6.2/bs/m/le\libgcc.a(_ge_df.o) (__fpcmp_parts_d)
../../wlan_bsp_cpu_high/mb_high/lib\libc.a(lib_a-ctype_.o)
                              ../../wlan_bsp_cpu_high/mb_high/lib\libxil.a(xil_printf.o) (__ctype_ptr__)
../../wlan_bsp_cpu_high/mb_high/lib\libc.a(lib_a-exit.o)
                              c:/xilinx/14.4/ise_ds/edk/gnu/microblaze/nt64/bin/../lib/gcc/microblaze-xilinx-elf/4.6.2/../../../../microblaze-xilinx-elf/lib/bs/m/le/crt0.o (exit)
../../wlan_bsp_cpu_high/mb_high/lib\libc.a(lib_a-impure.o)
                              ../../wlan_bsp_cpu_high/mb_high/lib\libc.a(lib_a-exit.o) (_global_impure_ptr)
../../wlan_bsp_cpu_high/mb_high/lib\libc.a(lib_a-malloc.o)
                              ./wlan_mac_high_framework/wlan_mac_high.o (malloc)
../../wlan_bsp_cpu_high/mb_high/lib\libc.a(lib_a-mallocr.o)
                              ../../wlan_bsp_cpu_high/mb_high/lib\libc.a(lib_a-malloc.o) (_malloc_r)
../../wlan_bsp_cpu_high/mb_high/lib\libc.a(lib_a-memcmp.o)
                              ./wlan_mac_high_framework/wlan_exp_node.o (memcmp)
../../wlan_bsp_cpu_high/mb_high/lib\libc.a(lib_a-memcpy.o)
                              ./wlan_mac_high_framework/wlan_exp_node.o (memcpy)
../../wlan_bsp_cpu_high/mb_high/lib\libc.a(lib_a-memmove.o)
                              ./wlan_mac_high_framework/wlan_mac_eth_util.o (memmove)
../../wlan_bsp_cpu_high/mb_high/lib\libc.a(lib_a-memset.o)
                              ./wlan_mac_high_framework/wlan_exp_node.o (memset)
../../wlan_bsp_cpu_high/mb_high/lib\libc.a(lib_a-mlock.o)
                              ../../wlan_bsp_cpu_high/mb_high/lib\libc.a(lib_a-mallocr.o) (__malloc_lock)
../../wlan_bsp_cpu_high/mb_high/lib\libc.a(lib_a-mstats.o)
                              ./wlan_mac_high_framework/wlan_mac_high.o (mallinfo)
../../wlan_bsp_cpu_high/mb_high/lib\libc.a(lib_a-rand.o)
                              ./wlan_mac_high_framework/wlan_exp_node.o (srand)
../../wlan_bsp_cpu_high/mb_high/lib\libc.a(lib_a-realloc.o)
                              ./wlan_mac_high_framework/wlan_mac_high.o (realloc)
../../wlan_bsp_cpu_high/mb_high/lib\libc.a(lib_a-reallocr.o)
                              ../../wlan_bsp_cpu_high/mb_high/lib\libc.a(lib_a-realloc.o) (_realloc_r)
../../wlan_bsp_cpu_high/mb_high/lib\libc.a(lib_a-sbrkr.o)
                              ../../wlan_bsp_cpu_high/mb_high/lib\libc.a(lib_a-mallocr.o) (_sbrk_r)
../../wlan_bsp_cpu_high/mb_high/lib\libc.a(lib_a-strcmp.o)
                              ./wlan_mac_high_framework/wlan_mac_network_info.o (strcmp)
../../wlan_bsp_cpu_high/mb_high/lib\libc.a(lib_a-strlen.o)
                              ./wlan_mac_high_framework/wlan_mac_packet_types.o (strlen)
../../wlan_bsp_cpu_high/mb_high/lib\libc.a(lib_a-strncpy.o)
                              ./wlan_mac_high_framework/wlan_mac_network_info.o (strncpy)
../../wlan_bsp_cpu_high/mb_high/lib\libc.a(lib_a-strndup.o)
                              ./wlan_mac_high_framework/wlan_exp_node.o (strndup)
../../wlan_bsp_cpu_high/mb_high/lib\libc.a(lib_a-strndup_r.o)
                              ../../wlan_bsp_cpu_high/mb_high/lib\libc.a(lib_a-strndup.o) (_strndup_r)
../../wlan_bsp_cpu_high/mb_high/lib\libc.a(lib_a-strrchr.o)
                              ./wlan_mac_high_framework/wlan_exp_common.o (strrchr)
../../wlan_bsp_cpu_high/mb_high/lib\libc.a(lib_a-__call_atexit.o)
                              ../../wlan_bsp_cpu_high/mb_high/lib\libc.a(lib_a-exit.o) (__call_exitprocs)
../../wlan_bsp_cpu_high/mb_high/lib\libc.a(lib_a-findfp.o)
                              ../../wlan_bsp_cpu_high/mb_high/lib\libc.a(lib_a-mstats.o) (__sinit)
../../wlan_bsp_cpu_high/mb_high/lib\libc.a(lib_a-fiprintf.o)
                              ../../wlan_bsp_cpu_high/mb_high/lib\libc.a(lib_a-mstats.o) (fiprintf)
../../wlan_bsp_cpu_high/mb_high/lib\libc.a(lib_a-freer.o)
                              ../../wlan_bsp_cpu_high/mb_high/lib\libc.a(lib_a-malloc.o) (_free_r)
../../wlan_bsp_cpu_high/mb_high/lib\libc.a(lib_a-fwalk.o)
                              ../../wlan_bsp_cpu_high/mb_high/lib\libc.a(lib_a-findfp.o) (_fwalk)
../../wlan_bsp_cpu_high/mb_high/lib\libc.a(lib_a-mallinfor.o)
                              ../../wlan_bsp_cpu_high/mb_high/lib\libc.a(lib_a-mstats.o) (_mallinfo_r)
../../wlan_bsp_cpu_high/mb_high/lib\libc.a(lib_a-malloptr.o)
                              ../../wlan_bsp_cpu_high/mb_high/lib\libc.a(lib_a-mstats.o) (_mallopt_r)
../../wlan_bsp_cpu_high/mb_high/lib\libc.a(lib_a-mallstatsr.o)
                              ../../wlan_bsp_cpu_high/mb_high/lib\libc.a(lib_a-mstats.o) (_malloc_stats_r)
../../wlan_bsp_cpu_high/mb_high/lib\libc.a(lib_a-reent.o)
                              ../../wlan_bsp_cpu_high/mb_high/lib\libc.a(lib_a-sbrkr.o) (errno)
../../wlan_bsp_cpu_high/mb_high/lib\libc.a(lib_a-stdio.o)
                              ../../wlan_bsp_cpu_high/mb_high/lib\libc.a(lib_a-findfp.o) (__sread)
../../wlan_bsp_cpu_high/mb_high/lib\libc.a(lib_a-strchr.o)
                              ../../wlan_bsp_cpu_high/mb_high/lib\libc.a(lib_a-strrchr.o) (strchr)
../../wlan_bsp_cpu_high/mb_high/lib\libc.a(lib_a-vfiprintf.o)
                              ../../wlan_bsp_cpu_high/mb_high/lib\libc.a(lib_a-fiprintf.o) (_vfiprintf_r)
../../wlan_bsp_cpu_high/mb_high/lib\libc.a(lib_a-writer.o)
                              ../../wlan_bsp_cpu_high/mb_high/lib\libc.a(lib_a-stdio.o) (_write_r)
../../wlan_bsp_cpu_high/mb_high/lib\libc.a(lib_a-wsetup.o)
                              ../../wlan_bsp_cpu_high/mb_high/lib\libc.a(lib_a-vfiprintf.o) (__swsetup_r)
../../wlan_bsp_cpu_high/mb_high/lib\libc.a(lib_a-closer.o)
                              ../../wlan_bsp_cpu_high/mb_high/lib\libc.a(lib_a-stdio.o) (_close_r)
../../wlan_bsp_cpu_high/mb_high/lib\libc.a(lib_a-fclose.o)
                              ../../wlan_bsp_cpu_high/mb_high/lib\libc.a(lib_a-findfp.o) (fclose)
../../wlan_bsp_cpu_high/mb_high/lib\libc.a(lib_a-fflush.o)
                              ../../wlan_bsp_cpu_high/mb_high/lib\libc.a(lib_a-vfiprintf.o) (_fflush_r)
../../wlan_bsp_cpu_high/mb_high/lib\libc.a(lib_a-fputwc.o)
                              ../../wlan_bsp_cpu_high/mb_high/lib\libc.a(lib_a-vfiprintf.o) (_fputwc_r)
../../wlan_bsp_cpu_high/mb_high/lib\libc.a(lib_a-fvwrite.o)
                              ../../wlan_bsp_cpu_high/mb_high/lib\libc.a(lib_a-vfiprintf.o) (__sfvwrite_r)
../../wlan_bsp_cpu_high/mb_high/lib\libc.a(lib_a-locale.o)
                              ../../wlan_bsp_cpu_high/mb_high/lib\libc.a(lib_a-fputwc.o) (__locale_mb_cur_max)
../../wlan_bsp_cpu_high/mb_high/lib\libc.a(lib_a-lseekr.o)
                              ../../wlan_bsp_cpu_high/mb_high/lib\libc.a(lib_a-stdio.o) (_lseek_r)
../../wlan_bsp_cpu_high/mb_high/lib\libc.a(lib_a-makebuf.o)
                              ../../wlan_bsp_cpu_high/mb_high/lib\libc.a(lib_a-wsetup.o) (__smakebuf_r)
../../wlan_bsp_cpu_high/mb_high/lib\libc.a(lib_a-memchr.o)
                              ../../wlan_bsp_cpu_high/mb_high/lib\libc.a(lib_a-vfiprintf.o) (memchr)
../../wlan_bsp_cpu_high/mb_high/lib\libc.a(lib_a-readr.o)
                              ../../wlan_bsp_cpu_high/mb_high/lib\libc.a(lib_a-stdio.o) (_read_r)
../../wlan_bsp_cpu_high/mb_high/lib\libc.a(lib_a-wbuf.o)
                              ../../wlan_bsp_cpu_high/mb_high/lib\libc.a(lib_a-fputwc.o) (__swbuf_r)
../../wlan_bsp_cpu_high/mb_high/lib\libc.a(lib_a-wcrtomb.o)
                              ../../wlan_bsp_cpu_high/mb_high/lib\libc.a(lib_a-fputwc.o) (_wcrtomb_r)
../../wlan_bsp_cpu_high/mb_high/lib\libc.a(lib_a-wctomb_r.o)
                              ../../wlan_bsp_cpu_high/mb_high/lib\libc.a(lib_a-wcrtomb.o) (__wctomb)
../../wlan_bsp_cpu_high/mb_high/lib\libc.a(lib_a-fstatr.o)
                              ../../wlan_bsp_cpu_high/mb_high/lib\libc.a(lib_a-makebuf.o) (_fstat_r)
../../wlan_bsp_cpu_high/mb_high/lib\libc.a(lib_a-isattyr.o)
                              ../../wlan_bsp_cpu_high/mb_high/lib\libc.a(lib_a-makebuf.o) (_isatty_r)
../../wlan_bsp_cpu_high/mb_high/lib\libxil.a(fstat.o)
                              ../../wlan_bsp_cpu_high/mb_high/lib\libc.a(lib_a-fstatr.o) (fstat)
../../wlan_bsp_cpu_high/mb_high/lib\libxil.a(isatty.o)
                              ../../wlan_bsp_cpu_high/mb_high/lib\libc.a(lib_a-isattyr.o) (isatty)
../../wlan_bsp_cpu_high/mb_high/lib\libxil.a(lseek.o)
                              ../../wlan_bsp_cpu_high/mb_high/lib\libc.a(lib_a-lseekr.o) (lseek)
../../wlan_bsp_cpu_high/mb_high/lib\libxil.a(sbrk.o)
                              ../../wlan_bsp_cpu_high/mb_high/lib\libc.a(lib_a-sbrkr.o) (sbrk)
../../wlan_bsp_cpu_high/mb_high/lib\libxil.a(write.o)
                              ../../wlan_bsp_cpu_high/mb_high/lib\libc.a(lib_a-writer.o) (write)
../../wlan_bsp_cpu_high/mb_high/lib\libxil.a(read.o)
                              ../../wlan_bsp_cpu_high/mb_high/lib\libc.a(lib_a-readr.o) (read)
../../wlan_bsp_cpu_high/mb_high/lib\libxil.a(close.o)
                              ../../wlan_bsp_cpu_high/mb_high/lib\libc.a(lib_a-closer.o) (close)
../../wlan_bsp_cpu_high/mb_high/lib\libxil.a(errno.o)
                              ../../wlan_bsp_cpu_high/mb_high/lib\libxil.a(lseek.o) (__errno)
../../wlan_bsp_cpu_high/mb_high/lib\libxil.a(inbyte.o)
                              ../../wlan_bsp_cpu_high/mb_high/lib\libxil.a(read.o) (inbyte)

Allocating common symbols
Common symbol       size              file

tx_probe_request_callback
                    0x4               ./wlan_mac_high_framework/wlan_mac_scan.o
ETH_send_buffers    0x38              ./wlan_mac_high_framework/wlan_exp_ip_udp/wlan_exp_ip_udp_init.o
scan_ssid_save      0x4               ./src/wlan_mac_sta_join.o
press_pb_2_callback
                    0x4               ./wlan_mac_high_framework/wlan_mac_high.o
low_param_channel   0x4               ./wlan_mac_high_framework/wlan_mac_high.o
wlan_exp_purge_all_data_tx_queue_callback
                    0x4               ./wlan_mac_high_framework/wlan_exp_node.o
wlan_exp_process_config_bss_callback
                    0x4               ./wlan_mac_high_framework/wlan_exp_node.o
gl_scan_parameters  0x14              ./wlan_mac_high_framework/wlan_mac_scan.o
cdma_inst           0x164             ./wlan_mac_high_framework/wlan_mac_high.o
errno               0x4               ../../wlan_bsp_cpu_high/mb_high/lib\libc.a(lib_a-reent.o)
scan_state_change_callback
                    0x4               ./wlan_mac_high_framework/wlan_mac_scan.o
mpdu_tx_high_done_callback
                    0x4               ./wlan_mac_high_framework/wlan_mac_high.o
XIntc_BitPosMask    0x28              ../../wlan_bsp_cpu_high/mb_high/lib\libxil.a(xintc.o)
release_pb_0_callback
                    0x4               ./wlan_mac_high_framework/wlan_mac_high.o
pause_data_queue    0x1               ./src/wlan_mac_sta.o
XAssertStatus       0x4               ../../wlan_bsp_cpu_high/mb_high/lib\libxil.a(xbasic_types.o)
wlan_exp_active_network_info_getter_callback
                    0x4               ./wlan_mac_high_framework/wlan_exp_node.o
tx_header_common    0x10              ./src/wlan_mac_sta.o
beacon_tx_done_callback
                    0x4               ./wlan_mac_high_framework/wlan_mac_high.o
ETH_1_instance      0x34              ./wlan_mac_high_framework/wlan_exp_ip_udp/wlan_exp_ip_udp_config.o
low_param_random_seed
                    0x4               ./wlan_mac_high_framework/wlan_mac_high.o
active_network_info
                    0x4               ./src/wlan_mac_sta.o
ETH_1_recv_buffers  0x54              ./wlan_mac_high_framework/wlan_exp_ip_udp/wlan_exp_ip_udp_config.o
mac_payload_log_len
                    0x4               ./wlan_mac_high_framework/wlan_mac_entries.o
interrupt_disable_callback
                    0x4               ./wlan_mac_high_framework/wlan_exp_ip_udp/wlan_exp_ip_udp_eth.o
low_param_rx_ant_mode
                    0x1               ./wlan_mac_high_framework/wlan_mac_high.o
release_pb_1_callback
                    0x4               ./wlan_mac_high_framework/wlan_mac_high.o
process_hton_msg_callback
                    0x4               ./wlan_mac_high_framework/wlan_exp_transport.o
interrupt_enable_callback
                    0x4               ./wlan_mac_high_framework/wlan_exp_ip_udp/wlan_exp_ip_udp_eth.o
cpu_low_reboot_callback
                    0x4               ./wlan_mac_high_framework/wlan_mac_high.o
tx_poll_callback    0x4               ./wlan_mac_high_framework/wlan_mac_high.o
low_param_dsss_en   0x4               ./wlan_mac_high_framework/wlan_mac_high.o
hw_info             0x4               ./wlan_mac_high_framework/wlan_mac_high.o
low_param_rx_filter
                    0x4               ./wlan_mac_high_framework/wlan_mac_high.o
press_pb_0_callback
                    0x4               ./wlan_mac_high_framework/wlan_mac_high.o
wlan_exp_beacon_ts_update_mode_callback
                    0x4               ./wlan_mac_high_framework/wlan_exp_node.o
release_pb_2_callback
                    0x4               ./wlan_mac_high_framework/wlan_mac_high.o
uart_callback       0x4               ./wlan_mac_high_framework/wlan_mac_high.o
my_aid              0x1               ./src/wlan_mac_sta.o
platform_common_dev_info
                    0x20              ./wlan_mac_high_framework/wlan_mac_high.o
gl_join_parameters  0xc               ./src/wlan_mac_sta_join.o
ETH_sockets         0x78              ./wlan_mac_high_framework/wlan_exp_ip_udp/wlan_exp_ip_udp_init.o
mpdu_rx_callback    0x4               ./wlan_mac_high_framework/wlan_mac_high.o
Xil_AssertStatus    0x4               ../../wlan_bsp_cpu_high/mb_high/lib\libxil.a(xil_assert.o)
mpdu_tx_dequeue_callback
                    0x4               ./wlan_mac_high_framework/wlan_mac_high.o
dram_present        0x1               ./wlan_mac_high_framework/wlan_mac_high.o
InterruptController
                    0x14              ./wlan_mac_high_framework/wlan_mac_high.o
ETH_allocated_send_buffers
                    0x4               ./wlan_mac_high_framework/wlan_exp_ip_udp/wlan_exp_ip_udp_init.o
eth_device          0x90              ./wlan_mac_high_framework/wlan_exp_ip_udp/wlan_exp_ip_udp_config.o
press_pb_1_callback
                    0x4               ./wlan_mac_high_framework/wlan_mac_high.o
mpdu_tx_low_done_callback
                    0x4               ./wlan_mac_high_framework/wlan_mac_high.o
low_param_radio_tx_pow
                    0x1               ./wlan_mac_high_framework/wlan_mac_high.o
ETH_arp_cache       0xc8              ./wlan_mac_high_framework/wlan_exp_ip_udp/wlan_exp_ip_udp_init.o
platform_high_dev_info
                    0x44              ./wlan_mac_high_framework/wlan_mac_high.o
node_info           0x64              ./wlan_mac_high_framework/wlan_exp_node.o
ETH_1_dma_instance  0x67c             ./wlan_mac_high_framework/wlan_exp_ip_udp/wlan_exp_ip_udp_config.o
low_param_tx_ctrl_pow
                    0x1               ./wlan_mac_high_framework/wlan_mac_high.o
addr_filter         0xc               ./wlan_mac_high_framework/wlan_mac_addr_filter.o
wlan_exp_process_user_cmd_callback
                    0x4               ./wlan_mac_high_framework/wlan_exp_node.o

Discarded input sections

 .data          0x00000000        0x0 c:/xilinx/14.4/ise_ds/edk/gnu/microblaze/nt64/bin/../lib/gcc/microblaze-xilinx-elf/4.6.2/../../../../microblaze-xilinx-elf/lib/bs/m/le/crt0.o
 .bss           0x00000000        0x0 c:/xilinx/14.4/ise_ds/edk/gnu/microblaze/nt64/bin/../lib/gcc/microblaze-xilinx-elf/4.6.2/../../../../microblaze-xilinx-elf/lib/bs/m/le/crt0.o
 .text          0x00000000        0x0 c:/xilinx/14.4/ise_ds/edk/gnu/microblaze/nt64/bin/../lib/gcc/microblaze-xilinx-elf/4.6.2/bs/m/le/crti.o
 .data          0x00000000        0x0 c:/xilinx/14.4/ise_ds/edk/gnu/microblaze/nt64/bin/../lib/gcc/microblaze-xilinx-elf/4.6.2/bs/m/le/crti.o
 .bss           0x00000000        0x0 c:/xilinx/14.4/ise_ds/edk/gnu/microblaze/nt64/bin/../lib/gcc/microblaze-xilinx-elf/4.6.2/bs/m/le/crti.o
 .data          0x00000000        0x8 c:/xilinx/14.4/ise_ds/edk/gnu/microblaze/nt64/bin/../lib/gcc/microblaze-xilinx-elf/4.6.2/bs/m/le/crtbegin.o
 .data          0x00000000        0x0 c:/xilinx/14.4/ise_ds/edk/gnu/microblaze/nt64/bin/../lib/gcc/microblaze-xilinx-elf/4.6.2/../../../../microblaze-xilinx-elf/lib/bs/m/le/crtinit.o
 .bss           0x00000000        0x0 c:/xilinx/14.4/ise_ds/edk/gnu/microblaze/nt64/bin/../lib/gcc/microblaze-xilinx-elf/4.6.2/../../../../microblaze-xilinx-elf/lib/bs/m/le/crtinit.o
 .text          0x00000000        0x0 ./wlan_platform_high/w3_eth.o
 .data          0x00000000        0x0 ./wlan_platform_high/w3_eth.o
 .bss           0x00000000        0x0 ./wlan_platform_high/w3_eth.o
 .text._init_rx_bd
                0x00000000       0xdc ./wlan_platform_high/w3_eth.o
 .text          0x00000000        0x0 ./wlan_platform_high/w3_high.o
 .data          0x00000000        0x0 ./wlan_platform_high/w3_high.o
 .bss           0x00000000        0x0 ./wlan_platform_high/w3_high.o
 .text          0x00000000        0x0 ./wlan_platform_high/w3_high_userio.o
 .data          0x00000000        0x0 ./wlan_platform_high/w3_high_userio.o
 .bss           0x00000000        0x0 ./wlan_platform_high/w3_high_userio.o
 .text          0x00000000        0x0 ./wlan_platform_high/w3_uart.o
 .data          0x00000000        0x0 ./wlan_platform_high/w3_uart.o
 .bss           0x00000000        0x0 ./wlan_platform_high/w3_uart.o
 .text          0x00000000        0x0 ./wlan_platform_common/w3_common.o
 .data          0x00000000        0x0 ./wlan_platform_common/w3_common.o
 .bss           0x00000000        0x0 ./wlan_platform_common/w3_common.o
 .text          0x00000000        0x0 ./wlan_platform_common/w3_mac_time_util.o
 .data          0x00000000        0x0 ./wlan_platform_common/w3_mac_time_util.o
 .bss           0x00000000        0x0 ./wlan_platform_common/w3_mac_time_util.o
 .text.apply_mac_time_delta_usec
                0x00000000       0xc0 ./wlan_platform_common/w3_mac_time_util.o
 .text          0x00000000        0x0 ./wlan_platform_common/w3_sysmon_util.o
 .data          0x00000000        0x0 ./wlan_platform_common/w3_sysmon_util.o
 .bss           0x00000000        0x0 ./wlan_platform_common/w3_sysmon_util.o
 .text          0x00000000        0x0 ./wlan_platform_common/w3_userio_util.o
 .data          0x00000000        0x0 ./wlan_platform_common/w3_userio_util.o
 .bss           0x00000000        0x0 ./wlan_platform_common/w3_userio_util.o
 .text.hex_to_seven_segment
                0x00000000       0x20 ./wlan_platform_common/w3_userio_util.o
 .text.disable_hex_pwm
                0x00000000       0x20 ./wlan_platform_common/w3_userio_util.o
 .text.set_hex_display_left_dp
                0x00000000       0x34 ./wlan_platform_common/w3_userio_util.o
 .text          0x00000000        0x0 ./wlan_mac_high_framework/wlan_exp_common.o
 .data          0x00000000        0x0 ./wlan_mac_high_framework/wlan_exp_common.o
 .bss           0x00000000        0x0 ./wlan_mac_high_framework/wlan_exp_common.o
 .text.print_mac_address
                0x00000000       0x98 ./wlan_mac_high_framework/wlan_exp_common.o
 .text          0x00000000        0x0 ./wlan_mac_high_framework/wlan_exp_node.o
 .data          0x00000000        0x0 ./wlan_mac_high_framework/wlan_exp_node.o
 .bss           0x00000000        0x0 ./wlan_mac_high_framework/wlan_exp_node.o
 .text.wlan_exp_node_set_type_design
                0x00000000       0x20 ./wlan_mac_high_framework/wlan_exp_node.o
 .text.send_early_resp
                0x00000000       0xec ./wlan_mac_high_framework/wlan_exp_node.o
 .text.wlan_exp_reset_all_callbacks
                0x00000000       0x48 ./wlan_mac_high_framework/wlan_exp_node.o
 .text.node_init_parameters
                0x00000000       0xac ./wlan_mac_high_framework/wlan_exp_node.o
 .text.node_get_parameters
                0x00000000       0x3c ./wlan_mac_high_framework/wlan_exp_node.o
 .text.node_get_serial_number
                0x00000000       0x10 ./wlan_mac_high_framework/wlan_exp_node.o
 .text          0x00000000        0x0 ./wlan_mac_high_framework/wlan_exp_transport.o
 .data          0x00000000        0x0 ./wlan_mac_high_framework/wlan_exp_transport.o
 .bss           0x00000000        0x0 ./wlan_mac_high_framework/wlan_exp_transport.o
 .text.transport_close
                0x00000000       0xd4 ./wlan_mac_high_framework/wlan_exp_transport.o
 .text.transport_send_async
                0x00000000       0xc0 ./wlan_mac_high_framework/wlan_exp_transport.o
 .text.transport_get_ethernet_status
                0x00000000       0xcc ./wlan_mac_high_framework/wlan_exp_transport.o
 .text.transport_update_link_speed
                0x00000000      0x45c ./wlan_mac_high_framework/wlan_exp_transport.o
 .text.transport_set_eth_phy_auto_negotiation
                0x00000000       0xbc ./wlan_mac_high_framework/wlan_exp_transport.o
 .text.transport_check_device
                0x00000000       0x90 ./wlan_mac_high_framework/wlan_exp_transport.o
 .text.transport_set_hw_addr
                0x00000000       0x68 ./wlan_mac_high_framework/wlan_exp_transport.o
 .text.transport_get_hw_addr
                0x00000000       0x20 ./wlan_mac_high_framework/wlan_exp_transport.o
 .text.transport_get_ip_addr
                0x00000000       0x20 ./wlan_mac_high_framework/wlan_exp_transport.o
 .text.transport_init_parameters
                0x00000000       0x70 ./wlan_mac_high_framework/wlan_exp_transport.o
 .text          0x00000000        0x0 ./wlan_mac_high_framework/wlan_exp_user.o
 .data          0x00000000        0x0 ./wlan_mac_high_framework/wlan_exp_user.o
 .bss           0x00000000        0x0 ./wlan_mac_high_framework/wlan_exp_user.o
 .text          0x00000000        0x0 ./wlan_mac_high_framework/wlan_mac_addr_filter.o
 .data          0x00000000        0x0 ./wlan_mac_high_framework/wlan_mac_addr_filter.o
 .bss           0x00000000        0x0 ./wlan_mac_high_framework/wlan_mac_addr_filter.o
 .rodata        0x00000000       0x2e ./wlan_mac_high_framework/wlan_mac_addr_filter.o
 .text.wlan_mac_addr_filter_reset
                0x00000000       0xc0 ./wlan_mac_high_framework/wlan_mac_addr_filter.o
 .text.wlan_mac_addr_filter_add
                0x00000000       0xfc ./wlan_mac_high_framework/wlan_mac_addr_filter.o
 .text.wlan_mac_addr_filter_is_allowed
                0x00000000      0x160 ./wlan_mac_high_framework/wlan_mac_addr_filter.o
 .text.addr_is_allowed
                0x00000000       0xec ./wlan_mac_high_framework/wlan_mac_addr_filter.o
 .text          0x00000000        0x0 ./wlan_mac_high_framework/wlan_mac_entries.o
 .data          0x00000000        0x0 ./wlan_mac_high_framework/wlan_mac_entries.o
 .bss           0x00000000        0x0 ./wlan_mac_high_framework/wlan_mac_entries.o
 .text.add_temperature_to_log
                0x00000000       0x80 ./wlan_mac_high_framework/wlan_mac_entries.o
 .text          0x00000000        0x0 ./wlan_mac_high_framework/wlan_mac_eth_util.o
 .data          0x00000000        0x0 ./wlan_mac_high_framework/wlan_mac_eth_util.o
 .bss           0x00000000        0x0 ./wlan_mac_high_framework/wlan_mac_eth_util.o
 .text          0x00000000        0x0 ./wlan_mac_high_framework/wlan_mac_event_log.o
 .data          0x00000000        0x0 ./wlan_mac_high_framework/wlan_mac_event_log.o
 .bss           0x00000000        0x0 ./wlan_mac_high_framework/wlan_mac_event_log.o
 .text.event_log_move_oldest_address
                0x00000000      0x114 ./wlan_mac_high_framework/wlan_mac_event_log.o
 .text          0x00000000        0x0 ./wlan_mac_high_framework/wlan_mac_high.o
 .data          0x00000000        0x0 ./wlan_mac_high_framework/wlan_mac_high.o
 .bss           0x00000000        0x0 ./wlan_mac_high_framework/wlan_mac_high.o
 .text.wlan_mac_high_interrupt_init
                0x00000000      0x10c ./wlan_mac_high_framework/wlan_mac_high.o
 .text.wlan_mac_high_set_press_pb_0_callback
                0x00000000       0x10 ./wlan_mac_high_framework/wlan_mac_high.o
 .text.wlan_mac_high_set_release_pb_0_callback
                0x00000000       0x10 ./wlan_mac_high_framework/wlan_mac_high.o
 .text.wlan_mac_high_set_press_pb_1_callback
                0x00000000       0x10 ./wlan_mac_high_framework/wlan_mac_high.o
 .text.wlan_mac_high_set_release_pb_1_callback
                0x00000000       0x10 ./wlan_mac_high_framework/wlan_mac_high.o
 .text.wlan_mac_high_set_press_pb_2_callback
                0x00000000       0x10 ./wlan_mac_high_framework/wlan_mac_high.o
 .text.wlan_mac_high_set_release_pb_2_callback
                0x00000000       0x10 ./wlan_mac_high_framework/wlan_mac_high.o
 .text.wlan_mac_high_set_mpdu_tx_high_done_callback
                0x00000000       0x10 ./wlan_mac_high_framework/wlan_mac_high.o
 .text.wlan_mac_high_set_mpdu_tx_low_done_callback
                0x00000000       0x10 ./wlan_mac_high_framework/wlan_mac_high.o
 .text.wlan_mac_high_set_beacon_tx_done_callback
                0x00000000       0x10 ./wlan_mac_high_framework/wlan_mac_high.o
 .text.wlan_mac_high_set_mpdu_dequeue_callback
                0x00000000       0x10 ./wlan_mac_high_framework/wlan_mac_high.o
 .text.wlan_mac_high_set_cpu_low_reboot_callback
                0x00000000       0x10 ./wlan_mac_high_framework/wlan_mac_high.o
 .text.wlan_mac_high_calloc
                0x00000000       0x90 ./wlan_mac_high_framework/wlan_mac_high.o
 .text.wlan_mac_high_right_shift_test
                0x00000000       0xd8 ./wlan_mac_high_framework/wlan_mac_high.o
 .text.wlan_mac_high_enable_mcast_buffering
                0x00000000       0x30 ./wlan_mac_high_framework/wlan_mac_high.o
 .text.wlan_mac_high_request_low_state
                0x00000000       0x30 ./wlan_mac_high_framework/wlan_mac_high.o
 .text.wlan_mac_high_is_cpu_low_initialized
                0x00000000       0x2c ./wlan_mac_high_framework/wlan_mac_high.o
 .text.wlan_mac_high_configure_beacon_tx_template
                0x00000000      0x178 ./wlan_mac_high_framework/wlan_mac_high.o
 .text.wlan_mac_sanitize_tx_params
                0x00000000       0xd0 ./wlan_mac_high_framework/wlan_mac_high.o
 .text          0x00000000        0x0 ./wlan_mac_high_framework/wlan_mac_high_mailbox_util.o
 .data          0x00000000        0x0 ./wlan_mac_high_framework/wlan_mac_high_mailbox_util.o
 .bss           0x00000000        0x0 ./wlan_mac_high_framework/wlan_mac_high_mailbox_util.o
 .text.wlan_mac_high_ipc_rx
                0x00000000       0x4c ./wlan_mac_high_framework/wlan_mac_high_mailbox_util.o
 .text          0x00000000        0x0 ./wlan_mac_high_framework/wlan_mac_ltg.o
 .data          0x00000000        0x0 ./wlan_mac_high_framework/wlan_mac_ltg.o
 .bss           0x00000000        0x0 ./wlan_mac_high_framework/wlan_mac_ltg.o
 .text.ltg_sched_create_l
                0x00000000       0x60 ./wlan_mac_high_framework/wlan_mac_ltg.o
 .text.ltg_sched_start_all
                0x00000000       0xb8 ./wlan_mac_high_framework/wlan_mac_ltg.o
 .text.ltg_sched_stop_all
                0x00000000       0xe4 ./wlan_mac_high_framework/wlan_mac_ltg.o
 .text.ltg_sched_stop_l
                0x00000000       0xac ./wlan_mac_high_framework/wlan_mac_ltg.o
 .text.ltg_sched_get_state
                0x00000000      0x138 ./wlan_mac_high_framework/wlan_mac_ltg.o
 .text.ltg_sched_get_params
                0x00000000       0x80 ./wlan_mac_high_framework/wlan_mac_ltg.o
 .text.ltg_sched_get_callback_arg
                0x00000000       0x80 ./wlan_mac_high_framework/wlan_mac_ltg.o
 .text.ltg_sched_destroy_params
                0x00000000       0x4c ./wlan_mac_high_framework/wlan_mac_ltg.o
 .text.ltg_sched_destroy_l
                0x00000000       0x70 ./wlan_mac_high_framework/wlan_mac_ltg.o
 .text          0x00000000        0x0 ./wlan_mac_high_framework/wlan_mac_network_info.o
 .data          0x00000000        0x0 ./wlan_mac_high_framework/wlan_mac_network_info.o
 .bss           0x00000000        0x0 ./wlan_mac_high_framework/wlan_mac_network_info.o
 .text.network_info_checkout
                0x00000000       0x58 ./wlan_mac_high_framework/wlan_mac_network_info.o
 .text.network_info_checkin
                0x00000000       0x2c ./wlan_mac_high_framework/wlan_mac_network_info.o
 .text.wlan_mac_high_find_network_info_oldest
                0x00000000       0x6c ./wlan_mac_high_framework/wlan_mac_network_info.o
 .text.wlan_mac_high_clear_network_info
                0x00000000      0x13c ./wlan_mac_high_framework/wlan_mac_network_info.o
 .text          0x00000000        0x0 ./wlan_mac_high_framework/wlan_mac_packet_types.o
 .data          0x00000000        0x0 ./wlan_mac_high_framework/wlan_mac_packet_types.o
 .bss           0x00000000        0x0 ./wlan_mac_high_framework/wlan_mac_packet_types.o
 .text.wlan_create_beacon_probe_resp_frame
                0x00000000      0x420 ./wlan_mac_high_framework/wlan_mac_packet_types.o
 .text.wlan_create_association_response_frame
                0x00000000      0x36c ./wlan_mac_high_framework/wlan_mac_packet_types.o
 .text          0x00000000        0x0 ./wlan_mac_high_framework/wlan_mac_queue.o
 .data          0x00000000        0x0 ./wlan_mac_high_framework/wlan_mac_queue.o
 .bss           0x00000000        0x0 ./wlan_mac_high_framework/wlan_mac_queue.o
 .text.queue_total_size
                0x00000000       0x10 ./wlan_mac_high_framework/wlan_mac_queue.o
 .text.queue_num_free
                0x00000000       0x10 ./wlan_mac_high_framework/wlan_mac_queue.o
 .text.queue_set_state_change_callback
                0x00000000       0x10 ./wlan_mac_high_framework/wlan_mac_queue.o
 .text          0x00000000        0x0 ./wlan_mac_high_framework/wlan_mac_scan.o
 .data          0x00000000        0x0 ./wlan_mac_high_framework/wlan_mac_scan.o
 .bss           0x00000000        0x0 ./wlan_mac_high_framework/wlan_mac_scan.o
 .text.wlan_mac_scan_pause
                0x00000000       0xd0 ./wlan_mac_high_framework/wlan_mac_scan.o
 .text.wlan_mac_scan_resume
                0x00000000       0x58 ./wlan_mac_high_framework/wlan_mac_scan.o
 .text          0x00000000        0x0 ./wlan_mac_high_framework/wlan_mac_schedule.o
 .data          0x00000000        0x0 ./wlan_mac_high_framework/wlan_mac_schedule.o
 .bss           0x00000000        0x0 ./wlan_mac_high_framework/wlan_mac_schedule.o
 .text.wlan_mac_schedule_find
                0x00000000       0x7c ./wlan_mac_high_framework/wlan_mac_schedule.o
 .text          0x00000000        0x0 ./wlan_mac_high_framework/wlan_mac_station_info.o
 .data          0x00000000        0x0 ./wlan_mac_high_framework/wlan_mac_station_info.o
 .bss           0x00000000        0x0 ./wlan_mac_high_framework/wlan_mac_station_info.o
 .text.station_info_timestamp_check
                0x00000000       0xe8 ./wlan_mac_high_framework/wlan_mac_station_info.o
 .text.station_info_init_finish
                0x00000000       0x34 ./wlan_mac_high_framework/wlan_mac_station_info.o
 .text.station_info_reset_all_counts_txrx
                0x00000000       0x94 ./wlan_mac_high_framework/wlan_mac_station_info.o
 .text.station_info_checkout
                0x00000000       0x48 ./wlan_mac_high_framework/wlan_mac_station_info.o
 .text.station_info_checkin
                0x00000000       0x2c ./wlan_mac_high_framework/wlan_mac_station_info.o
 .text.station_info_find_by_id
                0x00000000       0x94 ./wlan_mac_high_framework/wlan_mac_station_info.o
 .text.station_info_find_oldest
                0x00000000       0x64 ./wlan_mac_high_framework/wlan_mac_station_info.o
 .text.station_info_reset_all
                0x00000000       0xd0 ./wlan_mac_high_framework/wlan_mac_station_info.o
 .text.station_info_clear_txrx_counts
                0x00000000       0x24 ./wlan_mac_high_framework/wlan_mac_station_info.o
 .text.station_info_clear
                0x00000000       0x3c ./wlan_mac_high_framework/wlan_mac_station_info.o
 .text          0x00000000        0x0 ./wlan_mac_high_framework/wlan_exp_ip_udp/wlan_exp_ip_udp_config.o
 .data          0x00000000        0x0 ./wlan_mac_high_framework/wlan_exp_ip_udp/wlan_exp_ip_udp_config.o
 .bss           0x00000000        0x0 ./wlan_mac_high_framework/wlan_exp_ip_udp/wlan_exp_ip_udp_config.o
 .text          0x00000000        0x0 ./wlan_mac_high_framework/wlan_exp_ip_udp/wlan_exp_ip_udp_eth.o
 .data          0x00000000        0x0 ./wlan_mac_high_framework/wlan_exp_ip_udp/wlan_exp_ip_udp_eth.o
 .bss           0x00000000        0x0 ./wlan_mac_high_framework/wlan_exp_ip_udp/wlan_exp_ip_udp_eth.o
 .text.eth_get_num_tx_descriptors
                0x00000000        0x8 ./wlan_mac_high_framework/wlan_exp_ip_udp/wlan_exp_ip_udp_eth.o
 .text.eth_check_device
                0x00000000       0x98 ./wlan_mac_high_framework/wlan_exp_ip_udp/wlan_exp_ip_udp_eth.o
 .text.eth_process_tx_descriptors
                0x00000000      0x140 ./wlan_mac_high_framework/wlan_exp_ip_udp/wlan_exp_ip_udp_eth.o
 .text.eth_get_ip_addr
                0x00000000      0x108 ./wlan_mac_high_framework/wlan_exp_ip_udp/wlan_exp_ip_udp_eth.o
 .text.eth_get_hw_addr
                0x00000000      0x104 ./wlan_mac_high_framework/wlan_exp_ip_udp/wlan_exp_ip_udp_eth.o
 .text.eth_set_hw_addr
                0x00000000      0x100 ./wlan_mac_high_framework/wlan_exp_ip_udp/wlan_exp_ip_udp_eth.o
 .text          0x00000000        0x0 ./wlan_mac_high_framework/wlan_exp_ip_udp/wlan_exp_ip_udp_init.o
 .data          0x00000000        0x0 ./wlan_mac_high_framework/wlan_exp_ip_udp/wlan_exp_ip_udp_init.o
 .bss           0x00000000        0x0 ./wlan_mac_high_framework/wlan_exp_ip_udp/wlan_exp_ip_udp_init.o
 .text.eth_init_global_structures
                0x00000000       0x84 ./wlan_mac_high_framework/wlan_exp_ip_udp/wlan_exp_ip_udp_init.o
 .text.socket_init_sockets
                0x00000000       0x9c ./wlan_mac_high_framework/wlan_exp_ip_udp/wlan_exp_ip_udp_init.o
 .text.arp_init_cache
                0x00000000       0xec ./wlan_mac_high_framework/wlan_exp_ip_udp/wlan_exp_ip_udp_init.o
 .text          0x00000000        0x0 ./wlan_mac_high_framework/wlan_exp_ip_udp/wlan_exp_ip_udp_ip_udp.o
 .data          0x00000000        0x0 ./wlan_mac_high_framework/wlan_exp_ip_udp/wlan_exp_ip_udp_ip_udp.o
 .bss           0x00000000        0x0 ./wlan_mac_high_framework/wlan_exp_ip_udp/wlan_exp_ip_udp_ip_udp.o
 .text.ipv4_compute_checksum
                0x00000000       0x64 ./wlan_mac_high_framework/wlan_exp_ip_udp/wlan_exp_ip_udp_ip_udp.o
 .text.udp_process_packet
                0x00000000       0x70 ./wlan_mac_high_framework/wlan_exp_ip_udp/wlan_exp_ip_udp_ip_udp.o
 .text.arp_request
                0x00000000      0x3a0 ./wlan_mac_high_framework/wlan_exp_ip_udp/wlan_exp_ip_udp_ip_udp.o
 .text.arp_send_announcement
                0x00000000       0x44 ./wlan_mac_high_framework/wlan_exp_ip_udp/wlan_exp_ip_udp_ip_udp.o
 .text.imcp_process_packet
                0x00000000       0x44 ./wlan_mac_high_framework/wlan_exp_ip_udp/wlan_exp_ip_udp_ip_udp.o
 .text          0x00000000        0x0 ./wlan_mac_high_framework/wlan_exp_ip_udp/wlan_exp_ip_udp_socket.o
 .data          0x00000000        0x0 ./wlan_mac_high_framework/wlan_exp_ip_udp/wlan_exp_ip_udp_socket.o
 .bss           0x00000000        0x0 ./wlan_mac_high_framework/wlan_exp_ip_udp/wlan_exp_ip_udp_socket.o
 .text.socket_alloc_socket
                0x00000000       0x78 ./wlan_mac_high_framework/wlan_exp_ip_udp/wlan_exp_ip_udp_socket.o
 .text.socket_get_socket
                0x00000000       0x34 ./wlan_mac_high_framework/wlan_exp_ip_udp/wlan_exp_ip_udp_socket.o
 .text.socket_check_socket
                0x00000000       0x10 ./wlan_mac_high_framework/wlan_exp_ip_udp/wlan_exp_ip_udp_socket.o
 .text          0x00000000        0x0 ./wlan_mac_common_framework/wlan_mac_common.o
 .data          0x00000000        0x0 ./wlan_mac_common_framework/wlan_mac_common.o
 .bss           0x00000000        0x0 ./wlan_mac_common_framework/wlan_mac_common.o
 .text.get_mac_hw_addr_wlan_exp
                0x00000000       0x10 ./wlan_mac_common_framework/wlan_mac_common.o
 .text          0x00000000        0x0 ./wlan_mac_common_framework/wlan_mac_dl_list.o
 .data          0x00000000        0x0 ./wlan_mac_common_framework/wlan_mac_dl_list.o
 .bss           0x00000000        0x0 ./wlan_mac_common_framework/wlan_mac_dl_list.o
 .text.dl_entry_insertAfter
                0x00000000       0x64 ./wlan_mac_common_framework/wlan_mac_dl_list.o
 .text          0x00000000        0x0 ./wlan_mac_common_framework/wlan_mac_mailbox_util.o
 .data          0x00000000        0x0 ./wlan_mac_common_framework/wlan_mac_mailbox_util.o
 .bss           0x00000000        0x0 ./wlan_mac_common_framework/wlan_mac_mailbox_util.o
 .text.send_msg
                0x00000000       0x9c ./wlan_mac_common_framework/wlan_mac_mailbox_util.o
 .text          0x00000000        0x0 ./wlan_mac_common_framework/wlan_mac_pkt_buf_util.o
 .data          0x00000000        0x0 ./wlan_mac_common_framework/wlan_mac_pkt_buf_util.o
 .bss           0x00000000        0x0 ./wlan_mac_common_framework/wlan_mac_pkt_buf_util.o
 .text.force_lock_rx_pkt_buf
                0x00000000       0xa4 ./wlan_mac_common_framework/wlan_mac_pkt_buf_util.o
 .text.get_tx_pkt_buf_status
                0x00000000       0x4c ./wlan_mac_common_framework/wlan_mac_pkt_buf_util.o
 .text.get_rx_pkt_buf_status
                0x00000000       0x4c ./wlan_mac_common_framework/wlan_mac_pkt_buf_util.o
 .text          0x00000000        0x0 ./src/wlan_exp_node_sta.o
 .data          0x00000000        0x0 ./src/wlan_exp_node_sta.o
 .bss           0x00000000        0x0 ./src/wlan_exp_node_sta.o
 .text          0x00000000        0x0 ./src/wlan_mac_sta.o
 .data          0x00000000        0x0 ./src/wlan_mac_sta.o
 .bss           0x00000000        0x0 ./src/wlan_mac_sta.o
 .text          0x00000000        0x0 ./src/wlan_mac_sta_join.o
 .data          0x00000000        0x0 ./src/wlan_mac_sta_join.o
 .bss           0x00000000        0x0 ./src/wlan_mac_sta_join.o
 .text.wlan_mac_sta_set_join_success_callback
                0x00000000       0x10 ./src/wlan_mac_sta_join.o
 .text.transmit_join_auth_req
                0x00000000       0xe4 ./src/wlan_mac_sta_join.o
 .text.transmit_join_assoc_req
                0x00000000       0xe4 ./src/wlan_mac_sta_join.o
 .text          0x00000000        0x0 ./src/wlan_mac_sta_uart_menu.o
 .data          0x00000000        0x0 ./src/wlan_mac_sta_uart_menu.o
 .bss           0x00000000        0x0 ./src/wlan_mac_sta_uart_menu.o
 .text.print_main_menu
                0x00000000       0xc8 ./src/wlan_mac_sta_uart_menu.o
 .text.start_periodic_print
                0x00000000       0x84 ./src/wlan_mac_sta_uart_menu.o
 .text.stop_periodic_print
                0x00000000       0x40 ./src/wlan_mac_sta_uart_menu.o
 .data          0x00000000        0x0 ../../wlan_bsp_cpu_high/mb_high/lib\libxil.a(xil_printf.o)
 .bss           0x00000000        0x0 ../../wlan_bsp_cpu_high/mb_high/lib\libxil.a(xil_printf.o)
 .data          0x00000000        0x0 ../../wlan_bsp_cpu_high/mb_high/lib\libxil.a(_exception_handler.o)
 .bss           0x00000000        0x0 ../../wlan_bsp_cpu_high/mb_high/lib\libxil.a(_exception_handler.o)
 .data          0x00000000        0x0 ../../wlan_bsp_cpu_high/mb_high/lib\libxil.a(_program_clean.o)
 .bss           0x00000000        0x0 ../../wlan_bsp_cpu_high/mb_high/lib\libxil.a(_program_clean.o)
 .data          0x00000000        0x0 ../../wlan_bsp_cpu_high/mb_high/lib\libxil.a(_program_init.o)
 .bss           0x00000000        0x0 ../../wlan_bsp_cpu_high/mb_high/lib\libxil.a(_program_init.o)
 .bss           0x00000000        0x0 ../../wlan_bsp_cpu_high/mb_high/lib\libxil.a(hw_exception_handler.o)
 .data          0x00000000        0x0 ../../wlan_bsp_cpu_high/mb_high/lib\libxil.a(microblaze_enable_exceptions.o)
 .bss           0x00000000        0x0 ../../wlan_bsp_cpu_high/mb_high/lib\libxil.a(microblaze_enable_exceptions.o)
 .data          0x00000000        0x0 ../../wlan_bsp_cpu_high/mb_high/lib\libxil.a(microblaze_interrupt_handler.o)
 .bss           0x00000000        0x0 ../../wlan_bsp_cpu_high/mb_high/lib\libxil.a(microblaze_interrupt_handler.o)
 .text          0x00000000        0x0 ../../wlan_bsp_cpu_high/mb_high/lib\libxil.a(microblaze_interrupts_g.o)
 .bss           0x00000000        0x0 ../../wlan_bsp_cpu_high/mb_high/lib\libxil.a(microblaze_interrupts_g.o)
 .data          0x00000000        0x0 ../../wlan_bsp_cpu_high/mb_high/lib\libxil.a(outbyte.o)
 .bss           0x00000000        0x0 ../../wlan_bsp_cpu_high/mb_high/lib\libxil.a(outbyte.o)
 .data          0x00000000        0x0 ../../wlan_bsp_cpu_high/mb_high/lib\libxil.a(xil_cache.o)
 .bss           0x00000000        0x0 ../../wlan_bsp_cpu_high/mb_high/lib\libxil.a(xil_cache.o)
 .data          0x00000000        0x0 ../../wlan_bsp_cpu_high/mb_high/lib\libxil.a(xil_exception.o)
 .bss           0x00000000        0x0 ../../wlan_bsp_cpu_high/mb_high/lib\libxil.a(xil_exception.o)
 .data          0x00000000        0x0 ../../wlan_bsp_cpu_high/mb_high/lib\libxil.a(xil_io.o)
 .bss           0x00000000        0x0 ../../wlan_bsp_cpu_high/mb_high/lib\libxil.a(xil_io.o)
 .data          0x00000000        0x0 ../../wlan_bsp_cpu_high/mb_high/lib\libxil.a(xaxicdma.o)
 .bss           0x00000000        0x0 ../../wlan_bsp_cpu_high/mb_high/lib\libxil.a(xaxicdma.o)
 .data          0x00000000        0x0 ../../wlan_bsp_cpu_high/mb_high/lib\libxil.a(xaxicdma_bdring.o)
 .bss           0x00000000        0x0 ../../wlan_bsp_cpu_high/mb_high/lib\libxil.a(xaxicdma_bdring.o)
 .data          0x00000000        0x0 ../../wlan_bsp_cpu_high/mb_high/lib\libxil.a(xaxicdma_intr.o)
 .bss           0x00000000        0x0 ../../wlan_bsp_cpu_high/mb_high/lib\libxil.a(xaxicdma_intr.o)
 .data          0x00000000        0x0 ../../wlan_bsp_cpu_high/mb_high/lib\libxil.a(xaxicdma_sinit.o)
 .bss           0x00000000        0x0 ../../wlan_bsp_cpu_high/mb_high/lib\libxil.a(xaxicdma_sinit.o)
 .data          0x00000000        0x0 ../../wlan_bsp_cpu_high/mb_high/lib\libxil.a(xaxidma.o)
 .bss           0x00000000        0x0 ../../wlan_bsp_cpu_high/mb_high/lib\libxil.a(xaxidma.o)
 .data          0x00000000        0x0 ../../wlan_bsp_cpu_high/mb_high/lib\libxil.a(xaxidma_bd.o)
 .bss           0x00000000        0x0 ../../wlan_bsp_cpu_high/mb_high/lib\libxil.a(xaxidma_bd.o)
 .data          0x00000000        0x0 ../../wlan_bsp_cpu_high/mb_high/lib\libxil.a(xaxidma_bdring.o)
 .bss           0x00000000        0x0 ../../wlan_bsp_cpu_high/mb_high/lib\libxil.a(xaxidma_bdring.o)
 .data          0x00000000        0x0 ../../wlan_bsp_cpu_high/mb_high/lib\libxil.a(xaxidma_sinit.o)
 .bss           0x00000000        0x0 ../../wlan_bsp_cpu_high/mb_high/lib\libxil.a(xaxidma_sinit.o)
 .data          0x00000000        0x0 ../../wlan_bsp_cpu_high/mb_high/lib\libxil.a(xaxiethernet.o)
 .bss           0x00000000        0x0 ../../wlan_bsp_cpu_high/mb_high/lib\libxil.a(xaxiethernet.o)
 .data          0x00000000        0x0 ../../wlan_bsp_cpu_high/mb_high/lib\libxil.a(xaxiethernet_sinit.o)
 .bss           0x00000000        0x0 ../../wlan_bsp_cpu_high/mb_high/lib\libxil.a(xaxiethernet_sinit.o)
 .data          0x00000000        0x0 ../../wlan_bsp_cpu_high/mb_high/lib\libxil.a(xintc.o)
 .bss           0x00000000        0x0 ../../wlan_bsp_cpu_high/mb_high/lib\libxil.a(xintc.o)
 .text          0x00000000        0x0 ../../wlan_bsp_cpu_high/mb_high/lib\libxil.a(xintc_g.o)
 .bss           0x00000000        0x0 ../../wlan_bsp_cpu_high/mb_high/lib\libxil.a(xintc_g.o)
 .data          0x00000000        0x0 ../../wlan_bsp_cpu_high/mb_high/lib\libxil.a(xintc_l.o)
 .bss           0x00000000        0x0 ../../wlan_bsp_cpu_high/mb_high/lib\libxil.a(xintc_l.o)
 .data          0x00000000        0x0 ../../wlan_bsp_cpu_high/mb_high/lib\libxil.a(xintc_options.o)
 .bss           0x00000000        0x0 ../../wlan_bsp_cpu_high/mb_high/lib\libxil.a(xintc_options.o)
 .data          0x00000000        0x0 ../../wlan_bsp_cpu_high/mb_high/lib\libxil.a(xgpio.o)
 .bss           0x00000000        0x0 ../../wlan_bsp_cpu_high/mb_high/lib\libxil.a(xgpio.o)
 .data          0x00000000        0x0 ../../wlan_bsp_cpu_high/mb_high/lib\libxil.a(xgpio_intr.o)
 .bss           0x00000000        0x0 ../../wlan_bsp_cpu_high/mb_high/lib\libxil.a(xgpio_intr.o)
 .data          0x00000000        0x0 ../../wlan_bsp_cpu_high/mb_high/lib\libxil.a(xgpio_sinit.o)
 .bss           0x00000000        0x0 ../../wlan_bsp_cpu_high/mb_high/lib\libxil.a(xgpio_sinit.o)
 .data          0x00000000        0x0 ../../wlan_bsp_cpu_high/mb_high/lib\libxil.a(xtmrctr.o)
 .bss           0x00000000        0x0 ../../wlan_bsp_cpu_high/mb_high/lib\libxil.a(xtmrctr.o)
 .text          0x00000000        0x0 ../../wlan_bsp_cpu_high/mb_high/lib\libxil.a(xtmrctr_g.o)
 .bss           0x00000000        0x0 ../../wlan_bsp_cpu_high/mb_high/lib\libxil.a(xtmrctr_g.o)
 .data          0x00000000        0x0 ../../wlan_bsp_cpu_high/mb_high/lib\libxil.a(xtmrctr_intr.o)
 .bss           0x00000000        0x0 ../../wlan_bsp_cpu_high/mb_high/lib\libxil.a(xtmrctr_intr.o)
 .text          0x00000000        0x0 ../../wlan_bsp_cpu_high/mb_high/lib\libxil.a(xtmrctr_l.o)
 .bss           0x00000000        0x0 ../../wlan_bsp_cpu_high/mb_high/lib\libxil.a(xtmrctr_l.o)
 .data          0x00000000        0x0 ../../wlan_bsp_cpu_high/mb_high/lib\libxil.a(xtmrctr_options.o)
 .bss           0x00000000        0x0 ../../wlan_bsp_cpu_high/mb_high/lib\libxil.a(xtmrctr_options.o)
 .data          0x00000000        0x0 ../../wlan_bsp_cpu_high/mb_high/lib\libxil.a(xuartlite.o)
 .bss           0x00000000        0x0 ../../wlan_bsp_cpu_high/mb_high/lib\libxil.a(xuartlite.o)
 .data          0x00000000        0x0 ../../wlan_bsp_cpu_high/mb_high/lib\libxil.a(xuartlite_intr.o)
 .bss           0x00000000        0x0 ../../wlan_bsp_cpu_high/mb_high/lib\libxil.a(xuartlite_intr.o)
 .data          0x00000000        0x0 ../../wlan_bsp_cpu_high/mb_high/lib\libxil.a(xuartlite_l.o)
 .bss           0x00000000        0x0 ../../wlan_bsp_cpu_high/mb_high/lib\libxil.a(xuartlite_l.o)
 .data          0x00000000        0x0 ../../wlan_bsp_cpu_high/mb_high/lib\libxil.a(xuartlite_sinit.o)
 .bss           0x00000000        0x0 ../../wlan_bsp_cpu_high/mb_high/lib\libxil.a(xuartlite_sinit.o)
 .data          0x00000000        0x0 ../../wlan_bsp_cpu_high/mb_high/lib\libxil.a(xuartlite_stats.o)
 .bss           0x00000000        0x0 ../../wlan_bsp_cpu_high/mb_high/lib\libxil.a(xuartlite_stats.o)
 .data          0x00000000        0x0 ../../wlan_bsp_cpu_high/mb_high/lib\libxil.a(xmbox.o)
 .bss           0x00000000        0x0 ../../wlan_bsp_cpu_high/mb_high/lib\libxil.a(xmbox.o)
 .data          0x00000000        0x0 ../../wlan_bsp_cpu_high/mb_high/lib\libxil.a(xmbox_sinit.o)
 .bss           0x00000000        0x0 ../../wlan_bsp_cpu_high/mb_high/lib\libxil.a(xmbox_sinit.o)
 .data          0x00000000        0x0 ../../wlan_bsp_cpu_high/mb_high/lib\libxil.a(xmutex.o)
 .bss           0x00000000        0x0 ../../wlan_bsp_cpu_high/mb_high/lib\libxil.a(xmutex.o)
 .data          0x00000000        0x0 ../../wlan_bsp_cpu_high/mb_high/lib\libxil.a(xmutex_sinit.o)
 .bss           0x00000000        0x0 ../../wlan_bsp_cpu_high/mb_high/lib\libxil.a(xmutex_sinit.o)
 .data          0x00000000        0x0 ../../wlan_bsp_cpu_high/mb_high/lib\libxil.a(w3_iic_eeprom.o)
 .bss           0x00000000        0x0 ../../wlan_bsp_cpu_high/mb_high/lib\libxil.a(w3_iic_eeprom.o)
 .data          0x00000000        0x0 ../../wlan_bsp_cpu_high/mb_high/lib\libxil.a(print.o)
 .bss           0x00000000        0x0 ../../wlan_bsp_cpu_high/mb_high/lib\libxil.a(print.o)
 COMMON         0x00000000        0x4 ../../wlan_bsp_cpu_high/mb_high/lib\libxil.a(xbasic_types.o)
 .data          0x00000000        0x0 ../../wlan_bsp_cpu_high/mb_high/lib\libxil.a(microblaze_disable_dcache.o)
 .bss           0x00000000        0x0 ../../wlan_bsp_cpu_high/mb_high/lib\libxil.a(microblaze_disable_dcache.o)
 .data          0x00000000        0x0 ../../wlan_bsp_cpu_high/mb_high/lib\libxil.a(microblaze_disable_exceptions.o)
 .bss           0x00000000        0x0 ../../wlan_bsp_cpu_high/mb_high/lib\libxil.a(microblaze_disable_exceptions.o)
 .data          0x00000000        0x0 ../../wlan_bsp_cpu_high/mb_high/lib\libxil.a(microblaze_disable_icache.o)
 .bss           0x00000000        0x0 ../../wlan_bsp_cpu_high/mb_high/lib\libxil.a(microblaze_disable_icache.o)
 .data          0x00000000        0x0 ../../wlan_bsp_cpu_high/mb_high/lib\libxil.a(microblaze_disable_interrupts.o)
 .bss           0x00000000        0x0 ../../wlan_bsp_cpu_high/mb_high/lib\libxil.a(microblaze_disable_interrupts.o)
 .data          0x00000000        0x0 ../../wlan_bsp_cpu_high/mb_high/lib\libxil.a(microblaze_enable_interrupts.o)
 .bss           0x00000000        0x0 ../../wlan_bsp_cpu_high/mb_high/lib\libxil.a(microblaze_enable_interrupts.o)
 .data          0x00000000        0x0 ../../wlan_bsp_cpu_high/mb_high/lib\libxil.a(microblaze_flush_dcache.o)
 .bss           0x00000000        0x0 ../../wlan_bsp_cpu_high/mb_high/lib\libxil.a(microblaze_flush_dcache.o)
 .data          0x00000000        0x0 ../../wlan_bsp_cpu_high/mb_high/lib\libxil.a(microblaze_invalidate_dcache.o)
 .bss           0x00000000        0x0 ../../wlan_bsp_cpu_high/mb_high/lib\libxil.a(microblaze_invalidate_dcache.o)
 .data          0x00000000        0x0 ../../wlan_bsp_cpu_high/mb_high/lib\libxil.a(microblaze_invalidate_dcache_range.o)
 .bss           0x00000000        0x0 ../../wlan_bsp_cpu_high/mb_high/lib\libxil.a(microblaze_invalidate_dcache_range.o)
 .data          0x00000000        0x0 ../../wlan_bsp_cpu_high/mb_high/lib\libxil.a(microblaze_invalidate_icache.o)
 .bss           0x00000000        0x0 ../../wlan_bsp_cpu_high/mb_high/lib\libxil.a(microblaze_invalidate_icache.o)
 .data          0x00000000        0x0 ../../wlan_bsp_cpu_high/mb_high/lib\libxil.a(xaxicdma_bd.o)
 .bss           0x00000000        0x0 ../../wlan_bsp_cpu_high/mb_high/lib\libxil.a(xaxicdma_bd.o)
 .text          0x00000000        0x0 ../../wlan_bsp_cpu_high/mb_high/lib\libxil.a(xaxicdma_g.o)
 .bss           0x00000000        0x0 ../../wlan_bsp_cpu_high/mb_high/lib\libxil.a(xaxicdma_g.o)
 .text          0x00000000        0x0 ../../wlan_bsp_cpu_high/mb_high/lib\libxil.a(xaxidma_g.o)
 .bss           0x00000000        0x0 ../../wlan_bsp_cpu_high/mb_high/lib\libxil.a(xaxidma_g.o)
 .text          0x00000000        0x0 ../../wlan_bsp_cpu_high/mb_high/lib\libxil.a(xaxiethernet_g.o)
 .bss           0x00000000        0x0 ../../wlan_bsp_cpu_high/mb_high/lib\libxil.a(xaxiethernet_g.o)
 .text          0x00000000        0x0 ../../wlan_bsp_cpu_high/mb_high/lib\libxil.a(xgpio_g.o)
 .bss           0x00000000        0x0 ../../wlan_bsp_cpu_high/mb_high/lib\libxil.a(xgpio_g.o)
 .text          0x00000000        0x0 ../../wlan_bsp_cpu_high/mb_high/lib\libxil.a(xuartlite_g.o)
 .bss           0x00000000        0x0 ../../wlan_bsp_cpu_high/mb_high/lib\libxil.a(xuartlite_g.o)
 .text          0x00000000        0x0 ../../wlan_bsp_cpu_high/mb_high/lib\libxil.a(xmbox_g.o)
 .bss           0x00000000        0x0 ../../wlan_bsp_cpu_high/mb_high/lib\libxil.a(xmbox_g.o)
 .text          0x00000000        0x0 ../../wlan_bsp_cpu_high/mb_high/lib\libxil.a(xmutex_g.o)
 .bss           0x00000000        0x0 ../../wlan_bsp_cpu_high/mb_high/lib\libxil.a(xmutex_g.o)
 .data          0x00000000        0x0 c:/xilinx/14.4/ise_ds/edk/gnu/microblaze/nt64/bin/../lib/gcc/microblaze-xilinx-elf/4.6.2/bs/m/le\libgcc.a(_fixunsdfdi.o)
 .bss           0x00000000        0x0 c:/xilinx/14.4/ise_ds/edk/gnu/microblaze/nt64/bin/../lib/gcc/microblaze-xilinx-elf/4.6.2/bs/m/le\libgcc.a(_fixunsdfdi.o)
 .data          0x00000000        0x0 c:/xilinx/14.4/ise_ds/edk/gnu/microblaze/nt64/bin/../lib/gcc/microblaze-xilinx-elf/4.6.2/bs/m/le\libgcc.a(_floatundidf.o)
 .bss           0x00000000        0x0 c:/xilinx/14.4/ise_ds/edk/gnu/microblaze/nt64/bin/../lib/gcc/microblaze-xilinx-elf/4.6.2/bs/m/le\libgcc.a(_floatundidf.o)
 .data          0x00000000        0x0 c:/xilinx/14.4/ise_ds/edk/gnu/microblaze/nt64/bin/../lib/gcc/microblaze-xilinx-elf/4.6.2/bs/m/le\libgcc.a(_udivdi3.o)
 .bss           0x00000000        0x0 c:/xilinx/14.4/ise_ds/edk/gnu/microblaze/nt64/bin/../lib/gcc/microblaze-xilinx-elf/4.6.2/bs/m/le\libgcc.a(_udivdi3.o)
 .eh_frame      0x00000000       0x3c c:/xilinx/14.4/ise_ds/edk/gnu/microblaze/nt64/bin/../lib/gcc/microblaze-xilinx-elf/4.6.2/bs/m/le\libgcc.a(_udivdi3.o)
 .data          0x00000000        0x0 c:/xilinx/14.4/ise_ds/edk/gnu/microblaze/nt64/bin/../lib/gcc/microblaze-xilinx-elf/4.6.2/bs/m/le\libgcc.a(_umoddi3.o)
 .bss           0x00000000        0x0 c:/xilinx/14.4/ise_ds/edk/gnu/microblaze/nt64/bin/../lib/gcc/microblaze-xilinx-elf/4.6.2/bs/m/le\libgcc.a(_umoddi3.o)
 .eh_frame      0x00000000       0x3c c:/xilinx/14.4/ise_ds/edk/gnu/microblaze/nt64/bin/../lib/gcc/microblaze-xilinx-elf/4.6.2/bs/m/le\libgcc.a(_umoddi3.o)
 .data          0x00000000        0x0 c:/xilinx/14.4/ise_ds/edk/gnu/microblaze/nt64/bin/../lib/gcc/microblaze-xilinx-elf/4.6.2/bs/m/le\libgcc.a(_addsub_df.o)
 .bss           0x00000000        0x0 c:/xilinx/14.4/ise_ds/edk/gnu/microblaze/nt64/bin/../lib/gcc/microblaze-xilinx-elf/4.6.2/bs/m/le\libgcc.a(_addsub_df.o)
 .data          0x00000000        0x0 c:/xilinx/14.4/ise_ds/edk/gnu/microblaze/nt64/bin/../lib/gcc/microblaze-xilinx-elf/4.6.2/bs/m/le\libgcc.a(_mul_df.o)
 .bss           0x00000000        0x0 c:/xilinx/14.4/ise_ds/edk/gnu/microblaze/nt64/bin/../lib/gcc/microblaze-xilinx-elf/4.6.2/bs/m/le\libgcc.a(_mul_df.o)
 .data          0x00000000        0x0 c:/xilinx/14.4/ise_ds/edk/gnu/microblaze/nt64/bin/../lib/gcc/microblaze-xilinx-elf/4.6.2/bs/m/le\libgcc.a(_div_df.o)
 .bss           0x00000000        0x0 c:/xilinx/14.4/ise_ds/edk/gnu/microblaze/nt64/bin/../lib/gcc/microblaze-xilinx-elf/4.6.2/bs/m/le\libgcc.a(_div_df.o)
 .text          0x00000000        0x0 c:/xilinx/14.4/ise_ds/edk/gnu/microblaze/nt64/bin/../lib/gcc/microblaze-xilinx-elf/4.6.2/bs/m/le\libgcc.a(_thenan_df.o)
 .data          0x00000000        0x0 c:/xilinx/14.4/ise_ds/edk/gnu/microblaze/nt64/bin/../lib/gcc/microblaze-xilinx-elf/4.6.2/bs/m/le\libgcc.a(_thenan_df.o)
 .bss           0x00000000        0x0 c:/xilinx/14.4/ise_ds/edk/gnu/microblaze/nt64/bin/../lib/gcc/microblaze-xilinx-elf/4.6.2/bs/m/le\libgcc.a(_thenan_df.o)
 .data          0x00000000        0x0 c:/xilinx/14.4/ise_ds/edk/gnu/microblaze/nt64/bin/../lib/gcc/microblaze-xilinx-elf/4.6.2/bs/m/le\libgcc.a(_usi_to_df.o)
 .bss           0x00000000        0x0 c:/xilinx/14.4/ise_ds/edk/gnu/microblaze/nt64/bin/../lib/gcc/microblaze-xilinx-elf/4.6.2/bs/m/le\libgcc.a(_usi_to_df.o)
 .data          0x00000000        0x0 c:/xilinx/14.4/ise_ds/edk/gnu/microblaze/nt64/bin/../lib/gcc/microblaze-xilinx-elf/4.6.2/bs/m/le\libgcc.a(modsi3.o)
 .bss           0x00000000        0x0 c:/xilinx/14.4/ise_ds/edk/gnu/microblaze/nt64/bin/../lib/gcc/microblaze-xilinx-elf/4.6.2/bs/m/le\libgcc.a(modsi3.o)
 .data          0x00000000        0x0 c:/xilinx/14.4/ise_ds/edk/gnu/microblaze/nt64/bin/../lib/gcc/microblaze-xilinx-elf/4.6.2/bs/m/le\libgcc.a(udivsi3.o)
 .bss           0x00000000        0x0 c:/xilinx/14.4/ise_ds/edk/gnu/microblaze/nt64/bin/../lib/gcc/microblaze-xilinx-elf/4.6.2/bs/m/le\libgcc.a(udivsi3.o)
 .data          0x00000000        0x0 c:/xilinx/14.4/ise_ds/edk/gnu/microblaze/nt64/bin/../lib/gcc/microblaze-xilinx-elf/4.6.2/bs/m/le\libgcc.a(umodsi3.o)
 .bss           0x00000000        0x0 c:/xilinx/14.4/ise_ds/edk/gnu/microblaze/nt64/bin/../lib/gcc/microblaze-xilinx-elf/4.6.2/bs/m/le\libgcc.a(umodsi3.o)
 .data          0x00000000        0x0 c:/xilinx/14.4/ise_ds/edk/gnu/microblaze/nt64/bin/../lib/gcc/microblaze-xilinx-elf/4.6.2/bs/m/le\libgcc.a(_muldi3.o)
 .bss           0x00000000        0x0 c:/xilinx/14.4/ise_ds/edk/gnu/microblaze/nt64/bin/../lib/gcc/microblaze-xilinx-elf/4.6.2/bs/m/le\libgcc.a(_muldi3.o)
 .text          0x00000000        0x0 c:/xilinx/14.4/ise_ds/edk/gnu/microblaze/nt64/bin/../lib/gcc/microblaze-xilinx-elf/4.6.2/bs/m/le\libgcc.a(_clz.o)
 .data          0x00000000        0x0 c:/xilinx/14.4/ise_ds/edk/gnu/microblaze/nt64/bin/../lib/gcc/microblaze-xilinx-elf/4.6.2/bs/m/le\libgcc.a(_clz.o)
 .bss           0x00000000        0x0 c:/xilinx/14.4/ise_ds/edk/gnu/microblaze/nt64/bin/../lib/gcc/microblaze-xilinx-elf/4.6.2/bs/m/le\libgcc.a(_clz.o)
 .data          0x00000000        0x0 c:/xilinx/14.4/ise_ds/edk/gnu/microblaze/nt64/bin/../lib/gcc/microblaze-xilinx-elf/4.6.2/bs/m/le\libgcc.a(_clzsi2.o)
 .bss           0x00000000        0x0 c:/xilinx/14.4/ise_ds/edk/gnu/microblaze/nt64/bin/../lib/gcc/microblaze-xilinx-elf/4.6.2/bs/m/le\libgcc.a(_clzsi2.o)
 .data          0x00000000        0x0 c:/xilinx/14.4/ise_ds/edk/gnu/microblaze/nt64/bin/../lib/gcc/microblaze-xilinx-elf/4.6.2/bs/m/le\libgcc.a(_fixunsdfsi.o)
 .bss           0x00000000        0x0 c:/xilinx/14.4/ise_ds/edk/gnu/microblaze/nt64/bin/../lib/gcc/microblaze-xilinx-elf/4.6.2/bs/m/le\libgcc.a(_fixunsdfsi.o)
 .data          0x00000000        0x0 c:/xilinx/14.4/ise_ds/edk/gnu/microblaze/nt64/bin/../lib/gcc/microblaze-xilinx-elf/4.6.2/bs/m/le\libgcc.a(_pack_df.o)
 .bss           0x00000000        0x0 c:/xilinx/14.4/ise_ds/edk/gnu/microblaze/nt64/bin/../lib/gcc/microblaze-xilinx-elf/4.6.2/bs/m/le\libgcc.a(_pack_df.o)
 .data          0x00000000        0x0 c:/xilinx/14.4/ise_ds/edk/gnu/microblaze/nt64/bin/../lib/gcc/microblaze-xilinx-elf/4.6.2/bs/m/le\libgcc.a(_unpack_df.o)
 .bss           0x00000000        0x0 c:/xilinx/14.4/ise_ds/edk/gnu/microblaze/nt64/bin/../lib/gcc/microblaze-xilinx-elf/4.6.2/bs/m/le\libgcc.a(_unpack_df.o)
 .data          0x00000000        0x0 c:/xilinx/14.4/ise_ds/edk/gnu/microblaze/nt64/bin/../lib/gcc/microblaze-xilinx-elf/4.6.2/bs/m/le\libgcc.a(_ge_df.o)
 .bss           0x00000000        0x0 c:/xilinx/14.4/ise_ds/edk/gnu/microblaze/nt64/bin/../lib/gcc/microblaze-xilinx-elf/4.6.2/bs/m/le\libgcc.a(_ge_df.o)
 .data          0x00000000        0x0 c:/xilinx/14.4/ise_ds/edk/gnu/microblaze/nt64/bin/../lib/gcc/microblaze-xilinx-elf/4.6.2/bs/m/le\libgcc.a(_df_to_si.o)
 .bss           0x00000000        0x0 c:/xilinx/14.4/ise_ds/edk/gnu/microblaze/nt64/bin/../lib/gcc/microblaze-xilinx-elf/4.6.2/bs/m/le\libgcc.a(_df_to_si.o)
 .data          0x00000000        0x0 c:/xilinx/14.4/ise_ds/edk/gnu/microblaze/nt64/bin/../lib/gcc/microblaze-xilinx-elf/4.6.2/bs/m/le\libgcc.a(_lshrdi3.o)
 .bss           0x00000000        0x0 c:/xilinx/14.4/ise_ds/edk/gnu/microblaze/nt64/bin/../lib/gcc/microblaze-xilinx-elf/4.6.2/bs/m/le\libgcc.a(_lshrdi3.o)
 .data          0x00000000        0x0 c:/xilinx/14.4/ise_ds/edk/gnu/microblaze/nt64/bin/../lib/gcc/microblaze-xilinx-elf/4.6.2/bs/m/le\libgcc.a(_ashldi3.o)
 .bss           0x00000000        0x0 c:/xilinx/14.4/ise_ds/edk/gnu/microblaze/nt64/bin/../lib/gcc/microblaze-xilinx-elf/4.6.2/bs/m/le\libgcc.a(_ashldi3.o)
 .data          0x00000000        0x0 c:/xilinx/14.4/ise_ds/edk/gnu/microblaze/nt64/bin/../lib/gcc/microblaze-xilinx-elf/4.6.2/bs/m/le\libgcc.a(_fpcmp_parts_df.o)
 .bss           0x00000000        0x0 c:/xilinx/14.4/ise_ds/edk/gnu/microblaze/nt64/bin/../lib/gcc/microblaze-xilinx-elf/4.6.2/bs/m/le\libgcc.a(_fpcmp_parts_df.o)
 .text          0x00000000        0x0 ../../wlan_bsp_cpu_high/mb_high/lib\libc.a(lib_a-ctype_.o)
 .bss           0x00000000        0x0 ../../wlan_bsp_cpu_high/mb_high/lib\libc.a(lib_a-ctype_.o)
 .data          0x00000000        0x0 ../../wlan_bsp_cpu_high/mb_high/lib\libc.a(lib_a-exit.o)
 .bss           0x00000000        0x0 ../../wlan_bsp_cpu_high/mb_high/lib\libc.a(lib_a-exit.o)
 .text          0x00000000        0x0 ../../wlan_bsp_cpu_high/mb_high/lib\libc.a(lib_a-impure.o)
 .bss           0x00000000        0x0 ../../wlan_bsp_cpu_high/mb_high/lib\libc.a(lib_a-impure.o)
 .data          0x00000000        0x0 ../../wlan_bsp_cpu_high/mb_high/lib\libc.a(lib_a-malloc.o)
 .bss           0x00000000        0x0 ../../wlan_bsp_cpu_high/mb_high/lib\libc.a(lib_a-malloc.o)
 .data          0x00000000        0x0 ../../wlan_bsp_cpu_high/mb_high/lib\libc.a(lib_a-memcmp.o)
 .bss           0x00000000        0x0 ../../wlan_bsp_cpu_high/mb_high/lib\libc.a(lib_a-memcmp.o)
 .data          0x00000000        0x0 ../../wlan_bsp_cpu_high/mb_high/lib\libc.a(lib_a-memcpy.o)
 .bss           0x00000000        0x0 ../../wlan_bsp_cpu_high/mb_high/lib\libc.a(lib_a-memcpy.o)
 .data          0x00000000        0x0 ../../wlan_bsp_cpu_high/mb_high/lib\libc.a(lib_a-memmove.o)
 .bss           0x00000000        0x0 ../../wlan_bsp_cpu_high/mb_high/lib\libc.a(lib_a-memmove.o)
 .data          0x00000000        0x0 ../../wlan_bsp_cpu_high/mb_high/lib\libc.a(lib_a-memset.o)
 .bss           0x00000000        0x0 ../../wlan_bsp_cpu_high/mb_high/lib\libc.a(lib_a-memset.o)
 .data          0x00000000        0x0 ../../wlan_bsp_cpu_high/mb_high/lib\libc.a(lib_a-mlock.o)
 .bss           0x00000000        0x0 ../../wlan_bsp_cpu_high/mb_high/lib\libc.a(lib_a-mlock.o)
 .data          0x00000000        0x0 ../../wlan_bsp_cpu_high/mb_high/lib\libc.a(lib_a-mstats.o)
 .bss           0x00000000        0x0 ../../wlan_bsp_cpu_high/mb_high/lib\libc.a(lib_a-mstats.o)
 .data          0x00000000        0x0 ../../wlan_bsp_cpu_high/mb_high/lib\libc.a(lib_a-rand.o)
 .bss           0x00000000        0x0 ../../wlan_bsp_cpu_high/mb_high/lib\libc.a(lib_a-rand.o)
 .data          0x00000000        0x0 ../../wlan_bsp_cpu_high/mb_high/lib\libc.a(lib_a-realloc.o)
 .bss           0x00000000        0x0 ../../wlan_bsp_cpu_high/mb_high/lib\libc.a(lib_a-realloc.o)
 .data          0x00000000        0x0 ../../wlan_bsp_cpu_high/mb_high/lib\libc.a(lib_a-reallocr.o)
 .bss           0x00000000        0x0 ../../wlan_bsp_cpu_high/mb_high/lib\libc.a(lib_a-reallocr.o)
 .data          0x00000000        0x0 ../../wlan_bsp_cpu_high/mb_high/lib\libc.a(lib_a-sbrkr.o)
 .bss           0x00000000        0x0 ../../wlan_bsp_cpu_high/mb_high/lib\libc.a(lib_a-sbrkr.o)
 .data          0x00000000        0x0 ../../wlan_bsp_cpu_high/mb_high/lib\libc.a(lib_a-strcmp.o)
 .bss           0x00000000        0x0 ../../wlan_bsp_cpu_high/mb_high/lib\libc.a(lib_a-strcmp.o)
 .data          0x00000000        0x0 ../../wlan_bsp_cpu_high/mb_high/lib\libc.a(lib_a-strlen.o)
 .bss           0x00000000        0x0 ../../wlan_bsp_cpu_high/mb_high/lib\libc.a(lib_a-strlen.o)
 .data          0x00000000        0x0 ../../wlan_bsp_cpu_high/mb_high/lib\libc.a(lib_a-strncpy.o)
 .bss           0x00000000        0x0 ../../wlan_bsp_cpu_high/mb_high/lib\libc.a(lib_a-strncpy.o)
 .data          0x00000000        0x0 ../../wlan_bsp_cpu_high/mb_high/lib\libc.a(lib_a-strndup.o)
 .bss           0x00000000        0x0 ../../wlan_bsp_cpu_high/mb_high/lib\libc.a(lib_a-strndup.o)
 .data          0x00000000        0x0 ../../wlan_bsp_cpu_high/mb_high/lib\libc.a(lib_a-strndup_r.o)
 .bss           0x00000000        0x0 ../../wlan_bsp_cpu_high/mb_high/lib\libc.a(lib_a-strndup_r.o)
 .data          0x00000000        0x0 ../../wlan_bsp_cpu_high/mb_high/lib\libc.a(lib_a-strrchr.o)
 .bss           0x00000000        0x0 ../../wlan_bsp_cpu_high/mb_high/lib\libc.a(lib_a-strrchr.o)
 .data          0x00000000        0x0 ../../wlan_bsp_cpu_high/mb_high/lib\libc.a(lib_a-__call_atexit.o)
 .bss           0x00000000        0x0 ../../wlan_bsp_cpu_high/mb_high/lib\libc.a(lib_a-__call_atexit.o)
 .data          0x00000000        0x0 ../../wlan_bsp_cpu_high/mb_high/lib\libc.a(lib_a-findfp.o)
 .bss           0x00000000        0x0 ../../wlan_bsp_cpu_high/mb_high/lib\libc.a(lib_a-findfp.o)
 .data          0x00000000        0x0 ../../wlan_bsp_cpu_high/mb_high/lib\libc.a(lib_a-fiprintf.o)
 .bss           0x00000000        0x0 ../../wlan_bsp_cpu_high/mb_high/lib\libc.a(lib_a-fiprintf.o)
 .data          0x00000000        0x0 ../../wlan_bsp_cpu_high/mb_high/lib\libc.a(lib_a-freer.o)
 .bss           0x00000000        0x0 ../../wlan_bsp_cpu_high/mb_high/lib\libc.a(lib_a-freer.o)
 .data          0x00000000        0x0 ../../wlan_bsp_cpu_high/mb_high/lib\libc.a(lib_a-fwalk.o)
 .bss           0x00000000        0x0 ../../wlan_bsp_cpu_high/mb_high/lib\libc.a(lib_a-fwalk.o)
 .data          0x00000000        0x0 ../../wlan_bsp_cpu_high/mb_high/lib\libc.a(lib_a-mallinfor.o)
 .bss           0x00000000        0x0 ../../wlan_bsp_cpu_high/mb_high/lib\libc.a(lib_a-mallinfor.o)
 .data          0x00000000        0x0 ../../wlan_bsp_cpu_high/mb_high/lib\libc.a(lib_a-malloptr.o)
 .bss           0x00000000        0x0 ../../wlan_bsp_cpu_high/mb_high/lib\libc.a(lib_a-malloptr.o)
 .data          0x00000000        0x0 ../../wlan_bsp_cpu_high/mb_high/lib\libc.a(lib_a-mallstatsr.o)
 .bss           0x00000000        0x0 ../../wlan_bsp_cpu_high/mb_high/lib\libc.a(lib_a-mallstatsr.o)
 .text          0x00000000      0x374 ../../wlan_bsp_cpu_high/mb_high/lib\libc.a(lib_a-reent.o)
 .data          0x00000000        0x0 ../../wlan_bsp_cpu_high/mb_high/lib\libc.a(lib_a-reent.o)
 .bss           0x00000000        0x0 ../../wlan_bsp_cpu_high/mb_high/lib\libc.a(lib_a-reent.o)
 .data          0x00000000        0x0 ../../wlan_bsp_cpu_high/mb_high/lib\libc.a(lib_a-stdio.o)
 .bss           0x00000000        0x0 ../../wlan_bsp_cpu_high/mb_high/lib\libc.a(lib_a-stdio.o)
 .data          0x00000000        0x0 ../../wlan_bsp_cpu_high/mb_high/lib\libc.a(lib_a-strchr.o)
 .bss           0x00000000        0x0 ../../wlan_bsp_cpu_high/mb_high/lib\libc.a(lib_a-strchr.o)
 .data          0x00000000        0x0 ../../wlan_bsp_cpu_high/mb_high/lib\libc.a(lib_a-vfiprintf.o)
 .bss           0x00000000        0x0 ../../wlan_bsp_cpu_high/mb_high/lib\libc.a(lib_a-vfiprintf.o)
 .data          0x00000000        0x0 ../../wlan_bsp_cpu_high/mb_high/lib\libc.a(lib_a-writer.o)
 .bss           0x00000000        0x0 ../../wlan_bsp_cpu_high/mb_high/lib\libc.a(lib_a-writer.o)
 .data          0x00000000        0x0 ../../wlan_bsp_cpu_high/mb_high/lib\libc.a(lib_a-wsetup.o)
 .bss           0x00000000        0x0 ../../wlan_bsp_cpu_high/mb_high/lib\libc.a(lib_a-wsetup.o)
 .data          0x00000000        0x0 ../../wlan_bsp_cpu_high/mb_high/lib\libc.a(lib_a-closer.o)
 .bss           0x00000000        0x0 ../../wlan_bsp_cpu_high/mb_high/lib\libc.a(lib_a-closer.o)
 .data          0x00000000        0x0 ../../wlan_bsp_cpu_high/mb_high/lib\libc.a(lib_a-fclose.o)
 .bss           0x00000000        0x0 ../../wlan_bsp_cpu_high/mb_high/lib\libc.a(lib_a-fclose.o)
 .data          0x00000000        0x0 ../../wlan_bsp_cpu_high/mb_high/lib\libc.a(lib_a-fflush.o)
 .bss           0x00000000        0x0 ../../wlan_bsp_cpu_high/mb_high/lib\libc.a(lib_a-fflush.o)
 .data          0x00000000        0x0 ../../wlan_bsp_cpu_high/mb_high/lib\libc.a(lib_a-fputwc.o)
 .bss           0x00000000        0x0 ../../wlan_bsp_cpu_high/mb_high/lib\libc.a(lib_a-fputwc.o)
 .data          0x00000000        0x0 ../../wlan_bsp_cpu_high/mb_high/lib\libc.a(lib_a-fvwrite.o)
 .bss           0x00000000        0x0 ../../wlan_bsp_cpu_high/mb_high/lib\libc.a(lib_a-fvwrite.o)
 .bss           0x00000000        0xc ../../wlan_bsp_cpu_high/mb_high/lib\libc.a(lib_a-locale.o)
 .data          0x00000000        0x0 ../../wlan_bsp_cpu_high/mb_high/lib\libc.a(lib_a-lseekr.o)
 .bss           0x00000000        0x0 ../../wlan_bsp_cpu_high/mb_high/lib\libc.a(lib_a-lseekr.o)
 .data          0x00000000        0x0 ../../wlan_bsp_cpu_high/mb_high/lib\libc.a(lib_a-makebuf.o)
 .bss           0x00000000        0x0 ../../wlan_bsp_cpu_high/mb_high/lib\libc.a(lib_a-makebuf.o)
 .data          0x00000000        0x0 ../../wlan_bsp_cpu_high/mb_high/lib\libc.a(lib_a-memchr.o)
 .bss           0x00000000        0x0 ../../wlan_bsp_cpu_high/mb_high/lib\libc.a(lib_a-memchr.o)
 .data          0x00000000        0x0 ../../wlan_bsp_cpu_high/mb_high/lib\libc.a(lib_a-readr.o)
 .bss           0x00000000        0x0 ../../wlan_bsp_cpu_high/mb_high/lib\libc.a(lib_a-readr.o)
 .data          0x00000000        0x0 ../../wlan_bsp_cpu_high/mb_high/lib\libc.a(lib_a-wbuf.o)
 .bss           0x00000000        0x0 ../../wlan_bsp_cpu_high/mb_high/lib\libc.a(lib_a-wbuf.o)
 .data          0x00000000        0x0 ../../wlan_bsp_cpu_high/mb_high/lib\libc.a(lib_a-wcrtomb.o)
 .bss           0x00000000        0x0 ../../wlan_bsp_cpu_high/mb_high/lib\libc.a(lib_a-wcrtomb.o)
 .bss           0x00000000        0x0 ../../wlan_bsp_cpu_high/mb_high/lib\libc.a(lib_a-wctomb_r.o)
 .data          0x00000000        0x0 ../../wlan_bsp_cpu_high/mb_high/lib\libc.a(lib_a-fstatr.o)
 .bss           0x00000000        0x0 ../../wlan_bsp_cpu_high/mb_high/lib\libc.a(lib_a-fstatr.o)
 .data          0x00000000        0x0 ../../wlan_bsp_cpu_high/mb_high/lib\libc.a(lib_a-isattyr.o)
 .bss           0x00000000        0x0 ../../wlan_bsp_cpu_high/mb_high/lib\libc.a(lib_a-isattyr.o)
 .data          0x00000000        0x0 ../../wlan_bsp_cpu_high/mb_high/lib\libxil.a(fstat.o)
 .bss           0x00000000        0x0 ../../wlan_bsp_cpu_high/mb_high/lib\libxil.a(fstat.o)
 .data          0x00000000        0x0 ../../wlan_bsp_cpu_high/mb_high/lib\libxil.a(isatty.o)
 .bss           0x00000000        0x0 ../../wlan_bsp_cpu_high/mb_high/lib\libxil.a(isatty.o)
 .data          0x00000000        0x0 ../../wlan_bsp_cpu_high/mb_high/lib\libxil.a(lseek.o)
 .bss           0x00000000        0x0 ../../wlan_bsp_cpu_high/mb_high/lib\libxil.a(lseek.o)
 .data          0x00000000        0x0 ../../wlan_bsp_cpu_high/mb_high/lib\libxil.a(sbrk.o)
 .data          0x00000000        0x0 ../../wlan_bsp_cpu_high/mb_high/lib\libxil.a(write.o)
 .bss           0x00000000        0x0 ../../wlan_bsp_cpu_high/mb_high/lib\libxil.a(write.o)
 .data          0x00000000        0x0 ../../wlan_bsp_cpu_high/mb_high/lib\libxil.a(read.o)
 .bss           0x00000000        0x0 ../../wlan_bsp_cpu_high/mb_high/lib\libxil.a(read.o)
 .data          0x00000000        0x0 ../../wlan_bsp_cpu_high/mb_high/lib\libxil.a(close.o)
 .bss           0x00000000        0x0 ../../wlan_bsp_cpu_high/mb_high/lib\libxil.a(close.o)
 .data          0x00000000        0x0 ../../wlan_bsp_cpu_high/mb_high/lib\libxil.a(errno.o)
 .bss           0x00000000        0x0 ../../wlan_bsp_cpu_high/mb_high/lib\libxil.a(errno.o)
 .data          0x00000000        0x0 ../../wlan_bsp_cpu_high/mb_high/lib\libxil.a(inbyte.o)
 .bss           0x00000000        0x0 ../../wlan_bsp_cpu_high/mb_high/lib\libxil.a(inbyte.o)
 .data          0x00000000        0x4 c:/xilinx/14.4/ise_ds/edk/gnu/microblaze/nt64/bin/../lib/gcc/microblaze-xilinx-elf/4.6.2/bs/m/le/crtend.o
 .bss           0x00000000        0x0 c:/xilinx/14.4/ise_ds/edk/gnu/microblaze/nt64/bin/../lib/gcc/microblaze-xilinx-elf/4.6.2/bs/m/le/crtend.o
 .eh_frame      0x00000000        0x4 c:/xilinx/14.4/ise_ds/edk/gnu/microblaze/nt64/bin/../lib/gcc/microblaze-xilinx-elf/4.6.2/bs/m/le/crtend.o
 .jcr           0x00000000        0x4 c:/xilinx/14.4/ise_ds/edk/gnu/microblaze/nt64/bin/../lib/gcc/microblaze-xilinx-elf/4.6.2/bs/m/le/crtend.o
 .text          0x00000000        0x0 c:/xilinx/14.4/ise_ds/edk/gnu/microblaze/nt64/bin/../lib/gcc/microblaze-xilinx-elf/4.6.2/bs/m/le/crtn.o
 .data          0x00000000        0x0 c:/xilinx/14.4/ise_ds/edk/gnu/microblaze/nt64/bin/../lib/gcc/microblaze-xilinx-elf/4.6.2/bs/m/le/crtn.o
 .bss           0x00000000        0x0 c:/xilinx/14.4/ise_ds/edk/gnu/microblaze/nt64/bin/../lib/gcc/microblaze-xilinx-elf/4.6.2/bs/m/le/crtn.o

Memory Configuration

Name             Origin             Length             Attributes
mb_high_ilmb     0x00000050         0x0003ffb0
pkt_buff_rx_bram 0x90000000         0x00010000
pkt_buff_tx_bram 0x91000000         0x00010000
mb_high_aux_bram 0xa0000000         0x00010000
ddr3_sodimm      0xc0000000         0x40000000
*default*        0x00000000         0xffffffff

Linker script and memory map

LOAD c:/xilinx/14.4/ise_ds/edk/gnu/microblaze/nt64/bin/../lib/gcc/microblaze-xilinx-elf/4.6.2/../../../../microblaze-xilinx-elf/lib/bs/m/le/crt0.o
LOAD c:/xilinx/14.4/ise_ds/edk/gnu/microblaze/nt64/bin/../lib/gcc/microblaze-xilinx-elf/4.6.2/bs/m/le/crti.o
LOAD c:/xilinx/14.4/ise_ds/edk/gnu/microblaze/nt64/bin/../lib/gcc/microblaze-xilinx-elf/4.6.2/bs/m/le/crtbegin.o
LOAD c:/xilinx/14.4/ise_ds/edk/gnu/microblaze/nt64/bin/../lib/gcc/microblaze-xilinx-elf/4.6.2/../../../../microblaze-xilinx-elf/lib/bs/m/le/crtinit.o
                [0x00001000]                _STACK_SIZE = DEFINED (_STACK_SIZE)?_STACK_SIZE:0x1000
                [0x00002000]                _HEAP_SIZE = DEFINED (_HEAP_SIZE)?_HEAP_SIZE:0x2000

.vectors.reset  0x00000000        0x8
 *(.vectors.reset)
 .vectors.reset
                0x00000000        0x8 c:/xilinx/14.4/ise_ds/edk/gnu/microblaze/nt64/bin/../lib/gcc/microblaze-xilinx-elf/4.6.2/../../../../microblaze-xilinx-elf/lib/bs/m/le/crt0.o
                0x00000000                _start

.vectors.sw_exception
                0x00000008        0x8
 *(.vectors.sw_exception)
 .vectors.sw_exception
                0x00000008        0x8 c:/xilinx/14.4/ise_ds/edk/gnu/microblaze/nt64/bin/../lib/gcc/microblaze-xilinx-elf/4.6.2/../../../../microblaze-xilinx-elf/lib/bs/m/le/crt0.o

.vectors.interrupt
                0x00000010        0x8
 *(.vectors.interrupt)
 .vectors.interrupt
                0x00000010        0x8 c:/xilinx/14.4/ise_ds/edk/gnu/microblaze/nt64/bin/../lib/gcc/microblaze-xilinx-elf/4.6.2/../../../../microblaze-xilinx-elf/lib/bs/m/le/crt0.o

.vectors.hw_exception
                0x00000020        0x8
 *(.vectors.hw_exception)
 .vectors.hw_exception
                0x00000020        0x8 c:/xilinx/14.4/ise_ds/edk/gnu/microblaze/nt64/bin/../lib/gcc/microblaze-xilinx-elf/4.6.2/../../../../microblaze-xilinx-elf/lib/bs/m/le/crt0.o

.text           0x00000050    0x30000
 *(.text)
 .text          0x00000050       0x34 c:/xilinx/14.4/ise_ds/edk/gnu/microblaze/nt64/bin/../lib/gcc/microblaze-xilinx-elf/4.6.2/../../../../microblaze-xilinx-elf/lib/bs/m/le/crt0.o
                0x00000050                _start1
                0x00000080                _exit
 .text          0x00000084      0x118 c:/xilinx/14.4/ise_ds/edk/gnu/microblaze/nt64/bin/../lib/gcc/microblaze-xilinx-elf/4.6.2/bs/m/le/crtbegin.o
 .text          0x0000019c       0xb0 c:/xilinx/14.4/ise_ds/edk/gnu/microblaze/nt64/bin/../lib/gcc/microblaze-xilinx-elf/4.6.2/../../../../microblaze-xilinx-elf/lib/bs/m/le/crtinit.o
                0x0000019c                _crtinit
 .text          0x0000024c      0x604 ../../wlan_bsp_cpu_high/mb_high/lib\libxil.a(xil_printf.o)
                0x00000438                xil_printf
 .text          0x00000850        0x8 ../../wlan_bsp_cpu_high/mb_high/lib\libxil.a(_exception_handler.o)
                0x00000850                _exception_handler
 .text          0x00000858        0x8 ../../wlan_bsp_cpu_high/mb_high/lib\libxil.a(_program_clean.o)
                0x00000858                _program_clean
 .text          0x00000860        0x8 ../../wlan_bsp_cpu_high/mb_high/lib\libxil.a(_program_init.o)
                0x00000860                _program_init
 *fill*         0x00000868        0x8 00
 .text          0x00000870      0x480 ../../wlan_bsp_cpu_high/mb_high/lib\libxil.a(hw_exception_handler.o)
                0x00000870                _hw_exception_handler
 .text          0x00000cf0       0x14 ../../wlan_bsp_cpu_high/mb_high/lib\libxil.a(microblaze_enable_exceptions.o)
                0x00000cf0                microblaze_enable_exceptions
 .text          0x00000d04       0xb8 ../../wlan_bsp_cpu_high/mb_high/lib\libxil.a(microblaze_interrupt_handler.o)
                0x00000d04                _interrupt_handler
                0x00000d04                __interrupt_handler
                0x00000da8                microblaze_register_handler
 .text          0x00000dbc       0x2c ../../wlan_bsp_cpu_high/mb_high/lib\libxil.a(outbyte.o)
                0x00000dbc                outbyte
 .text          0x00000de8       0x64 ../../wlan_bsp_cpu_high/mb_high/lib\libxil.a(xil_cache.o)
                0x00000de8                Xil_DCacheDisable
                0x00000e20                Xil_ICacheDisable
 .text          0x00000e4c       0xe8 ../../wlan_bsp_cpu_high/mb_high/lib\libxil.a(xil_exception.o)
                0x00000e54                Xil_ExceptionInit
                0x00000e5c                Xil_ExceptionEnable
                0x00000e88                Xil_ExceptionDisable
                0x00000eb4                Xil_ExceptionRegisterHandler
                0x00000eec                Xil_ExceptionRemoveHandler
 .text          0x00000f34      0x118 ../../wlan_bsp_cpu_high/mb_high/lib\libxil.a(xil_io.o)
                0x00000f34                Xil_EndianSwap16
                0x00000f50                Xil_EndianSwap32
                0x00000f88                Xil_In16BE
                0x00000fb0                Xil_In32BE
                0x00000fec                Xil_Out16BE
                0x0000100c                Xil_Out32BE
 .text          0x0000104c      0x570 ../../wlan_bsp_cpu_high/mb_high/lib\libxil.a(xaxicdma.o)
                0x0000104c                XAxiCdma_GetError
                0x0000105c                XAxiCdma_Reset
                0x00001084                XAxiCdma_ResetIsDone
                0x0000109c                XAxiCdma_CfgInitialize
                0x0000117c                XAxiCdma_IsBusy
                0x00001194                XAxiCdma_IsSimpleMode
                0x000011ac                XAxiCdma_SwitchMode
                0x000012b8                XAxiCdma_SimpleTransfer
                0x00001414                XAxiCdma_SetCoalesce
                0x000014a8                XAxiCdma_GetCoalesce
                0x000014e0                XAxiCdma_DumpRegisters
 .text          0x000015bc      0xab8 ../../wlan_bsp_cpu_high/mb_high/lib\libxil.a(xaxicdma_bdring.o)
                0x000015bc                XAxiCdma_BdRingCntCalc
                0x000015f8                XAxiCdma_BdRingMemCalc
                0x0000160c                XAxiCdma_BdRingGetCnt
                0x00001614                XAxiCdma_BdRingGetFreeCnt
                0x0000161c                XAxiCdma_BdRingSnapShotCurrBd
                0x0000166c                XAxiCdma_BdRingGetCurrBd
                0x0000167c                XAxiCdma_BdRingNext
                0x000016c4                XAxiCdma_BdRingPrev
                0x0000170c                XAxiCdma_BdRingCreate
                0x00001950                XAxiCdma_BdRingClone
                0x00001a18                XAxiCdma_BdRingAlloc
                0x00001a80                XAxiCdma_BdRingUnAlloc
                0x00001b08                XAxiCdma_BdRingToHw
                0x00001d88                XAxiCdma_BdRingFromHw
                0x00001ee0                XAxiCdma_BdRingFree
                0x00001fc0                XAxiCdma_BdRingStartTransfer
 .text          0x00002074      0x194 ../../wlan_bsp_cpu_high/mb_high/lib\libxil.a(xaxicdma_intr.o)
                0x00002074                XAxiCdma_IntrEnable
                0x00002090                XAxiCdma_IntrGetEnabled
                0x000020a0                XAxiCdma_IntrDisable
                0x000020c0                XAxiCdma_IntrHandler
 .text          0x00002208       0x24 ../../wlan_bsp_cpu_high/mb_high/lib\libxil.a(xaxicdma_sinit.o)
                0x00002208                XAxiCdma_LookupConfig
 .text          0x0000222c      0x758 ../../wlan_bsp_cpu_high/mb_high/lib\libxil.a(xaxidma.o)
                0x0000222c                XAxiDma_Reset
                0x0000233c                XAxiDma_ResetIsDone
                0x00002380                XAxiDma_CfgInitialize
                0x00002560                XAxiDma_Pause
                0x000025f4                XAxiDma_Resume
                0x00002808                XAxiDma_Busy
                0x00002828                XAxiDma_SelectKeyHole
                0x00002858                XAxiDma_SimpleTransfer
 .text          0x00002984      0x280 ../../wlan_bsp_cpu_high/mb_high/lib\libxil.a(xaxidma_bd.o)
                0x00002984                XAxiDma_BdSetLength
                0x000029b8                XAxiDma_BdSetBufAddr
                0x00002a18                XAxiDma_BdSetAppWord
                0x00002a4c                XAxiDma_BdGetAppWord
                0x00002a84                XAxiDma_BdSetCtrl
                0x00002aa4                XAxiDma_DumpBd
 .text          0x00002c04      0xd48 ../../wlan_bsp_cpu_high/mb_high/lib\libxil.a(xaxidma_bdring.o)
                0x00002c04                XAxiDma_UpdateBdRingCDesc
                0x00002cf4                XAxiDma_BdRingCreate
                0x00002ecc                XAxiDma_BdRingClone
                0x00002fa4                XAxiDma_StartBdRingHw
                0x000030a8                XAxiDma_BdRingStart
                0x000030dc                XAxiDma_BdRingSetCoalesce
                0x00003148                XAxiDma_BdRingGetCoalesce
                0x0000316c                XAxiDma_BdRingAlloc
                0x000031e4                XAxiDma_BdRingUnAlloc
                0x00003288                XAxiDma_BdRingToHw
                0x000034b8                XAxiDma_BdRingFromHw
                0x0000363c                XAxiDma_BdRingFree
                0x000036b8                XAxiDma_BdRingCheck
                0x00003828                XAxiDma_BdRingDumpRegs
 .text          0x0000394c       0x40 ../../wlan_bsp_cpu_high/mb_high/lib\libxil.a(xaxidma_sinit.o)
                0x0000394c                XAxiDma_LookupConfig
 .text          0x0000398c     0x135c ../../wlan_bsp_cpu_high/mb_high/lib\libxil.a(xaxiethernet.o)
                0x00003a70                XAxiEthernet_Start
                0x00003b6c                XAxiEthernet_Stop
                0x00003c34                XAxiEthernet_SetMacAddress
                0x00003db4                XAxiEthernet_GetMacAddress
                0x00003ee8                XAxiEthernet_SetOptions
                0x00004198                XAxiEthernet_ClearOptions
                0x00004440                XAxiEthernet_GetOptions
                0x000044dc                XAxiEthernet_GetOperatingSpeed
                0x000045c0                XAxiEthernet_SetOperatingSpeed
                0x00004740                XAxiEthernet_SetBadFrmRcvOption
                0x00004758                XAxiEthernet_ClearBadFrmRcvOption
                0x00004770                XAxiEthernet_DisableControlFrameLenCheck
                0x0000478c                XAxiEthernet_EnableControlFrameLenCheck
                0x000047a8                XAxiEthernet_PhySetMdioDivisor
                0x00004870                XAxiEthernet_Reset
                0x00004a14                XAxiEthernet_CfgInitialize
                0x00004ad4                XAxiEthernet_PhyRead
                0x00004be0                XAxiEthernet_PhyWrite
 .text          0x00004ce8       0x40 ../../wlan_bsp_cpu_high/mb_high/lib\libxil.a(xaxiethernet_sinit.o)
                0x00004ce8                XAxiEthernet_LookupConfig
 .text          0x00004d28      0xc18 ../../wlan_bsp_cpu_high/mb_high/lib\libxil.a(xintc.o)
                0x00004d80                XIntc_Initialize
                0x00004f10                XIntc_Start
                0x00005000                XIntc_Stop
                0x00005090                XIntc_Connect
                0x000051a0                XIntc_Disconnect
                0x000052a4                XIntc_Enable
                0x00005380                XIntc_Disable
                0x00005460                XIntc_Acknowledge
                0x00005534                XIntc_LookupConfig
                0x00005558                XIntc_ConnectFastHandler
                0x0000575c                XIntc_SetNormalIntrMode
 .text          0x00005940      0x1e8 ../../wlan_bsp_cpu_high/mb_high/lib\libxil.a(xintc_l.o)
                0x00005940                XIntc_DeviceInterruptHandler
                0x00005a38                XIntc_LowLevelInterruptHandler
                0x00005a54                XIntc_SetIntrSvcOption
                0x00005a7c                XIntc_RegisterHandler
                0x00005ab0                XIntc_RegisterFastHandler
 .text          0x00005b28      0x158 ../../wlan_bsp_cpu_high/mb_high/lib\libxil.a(xintc_options.o)
                0x00005b28                XIntc_SetOptions
                0x00005be0                XIntc_GetOptions
 .text          0x00005c80      0x41c ../../wlan_bsp_cpu_high/mb_high/lib\libxil.a(xgpio.o)
                0x00005c80                XGpio_CfgInitialize
                0x00005cf4                XGpio_SetDataDirection
                0x00005dd0                XGpio_GetDataDirection
                0x00005ec8                XGpio_DiscreteRead
                0x00005fc0                XGpio_DiscreteWrite
 .text          0x0000609c      0x5d8 ../../wlan_bsp_cpu_high/mb_high/lib\libxil.a(xgpio_intr.o)
                0x0000609c                XGpio_InterruptGlobalEnable
                0x00006168                XGpio_InterruptGlobalDisable
                0x0000622c                XGpio_InterruptEnable
                0x000062f8                XGpio_InterruptDisable
                0x000063c8                XGpio_InterruptClear
                0x00006494                XGpio_InterruptGetEnabled
                0x00006584                XGpio_InterruptGetStatus
 .text          0x00006674       0xb4 ../../wlan_bsp_cpu_high/mb_high/lib\libxil.a(xgpio_sinit.o)
                0x00006674                XGpio_LookupConfig
                0x00006698                XGpio_Initialize
 .text          0x00006728      0x7cc ../../wlan_bsp_cpu_high/mb_high/lib\libxil.a(xtmrctr.o)
                0x00006728                XTmrCtr_Initialize
                0x00006860                XTmrCtr_Start
                0x00006950                XTmrCtr_Stop
                0x00006a2c                XTmrCtr_GetValue
                0x00006b20                XTmrCtr_SetResetValue
                0x00006bf8                XTmrCtr_GetCaptureValue
                0x00006cec                XTmrCtr_Reset
                0x00006dd8                XTmrCtr_IsExpired
                0x00006ed0                XTmrCtr_LookupConfig
 .text          0x00006ef4      0x1c8 ../../wlan_bsp_cpu_high/mb_high/lib\libxil.a(xtmrctr_intr.o)
                0x00006ef4                XTmrCtr_SetHandler
                0x00006fac                XTmrCtr_InterruptHandler
 .text          0x000070bc      0x240 ../../wlan_bsp_cpu_high/mb_high/lib\libxil.a(xtmrctr_options.o)
                0x000070bc                XTmrCtr_SetOptions
                0x000071dc                XTmrCtr_GetOptions
 .text          0x000072fc      0x5e8 ../../wlan_bsp_cpu_high/mb_high/lib\libxil.a(xuartlite.o)
                0x00007330                XUartLite_CfgInitialize
                0x000073cc                XUartLite_ResetFifos
                0x00007464                XUartLite_IsSending
                0x000074d8                XUartLite_SendBuffer
                0x00007580                XUartLite_Send
                0x000076cc                XUartLite_ReceiveBuffer
                0x00007798                XUartLite_Recv
 .text          0x000078e4      0x384 ../../wlan_bsp_cpu_high/mb_high/lib\libxil.a(xuartlite_intr.o)
                0x000078e4                XUartLite_SetRecvHandler
                0x0000799c                XUartLite_SetSendHandler
                0x00007a54                XUartLite_InterruptHandler
                0x00007b4c                XUartLite_DisableInterrupt
                0x00007bd8                XUartLite_EnableInterrupt
 .text          0x00007c68       0x38 ../../wlan_bsp_cpu_high/mb_high/lib\libxil.a(xuartlite_l.o)
                0x00007c68                XUartLite_SendByte
                0x00007c84                XUartLite_RecvByte
 .text          0x00007ca0       0xb0 ../../wlan_bsp_cpu_high/mb_high/lib\libxil.a(xuartlite_sinit.o)
                0x00007ca0                XUartLite_LookupConfig
                0x00007cc4                XUartLite_Initialize
 .text          0x00007d50      0x188 ../../wlan_bsp_cpu_high/mb_high/lib\libxil.a(xuartlite_stats.o)
                0x00007d50                XUartLite_GetStats
                0x00007e38                XUartLite_ClearStats
 .text          0x00007ed8      0xd28 ../../wlan_bsp_cpu_high/mb_high/lib\libxil.a(xmbox.o)
                0x00007ed8                XMbox_CfgInitialize
                0x00008008                XMbox_Read
                0x00008208                XMbox_ReadBlocking
                0x0000834c                XMbox_Write
                0x00008548                XMbox_WriteBlocking
                0x0000868c                XMbox_IsEmpty
                0x00008710                XMbox_IsFull
                0x00008794                XMbox_Flush
                0x00008828                XMbox_SetInterruptEnable
                0x000088ac                XMbox_GetInterruptEnable
                0x00008944                XMbox_GetInterruptStatus
                0x000089dc                XMbox_ClearInterrupt
                0x00008a60                XMbox_SetSendThreshold
                0x00008ae4                XMbox_SetReceiveThreshold
                0x00008b68                XMbox_GetStatus
 .text          0x00008c00       0x24 ../../wlan_bsp_cpu_high/mb_high/lib\libxil.a(xmbox_sinit.o)
                0x00008c00                XMbox_LookupConfig
 .text          0x00008c24      0x6ec ../../wlan_bsp_cpu_high/mb_high/lib\libxil.a(xmutex.o)
                0x00008c24                XMutex_CfgInitialize
                0x00008d74                XMutex_Lock
                0x00008e1c                XMutex_Trylock
                0x00008ee8                XMutex_Unlock
                0x00008fb4                XMutex_IsLocked
                0x00009058                XMutex_GetStatus
                0x00009150                XMutex_GetUser
                0x0000924c                XMutex_SetUser
 .text          0x00009310       0x24 ../../wlan_bsp_cpu_high/mb_high/lib\libxil.a(xmutex_sinit.o)
                0x00009310                XMutex_LookupConfig
 .text          0x00009334      0x9c0 ../../wlan_bsp_cpu_high/mb_high/lib\libxil.a(w3_iic_eeprom.o)
                0x00009334                iic_eeprom_trylock
                0x0000934c                iic_eeprom_unlock
                0x00009358                w3_eeprom_read_serial_num
                0x0000939c                w3_eeprom_read_eth_addr
                0x00009438                w3_eeprom_read_fpga_dna
                0x00009490                iic_eeprom_write_byte_internal
                0x00009638                iic_eeprom_write_byte
                0x0000969c                iic_eeprom_read_byte_internal
                0x00009800                iic_eeprom_read_fpga_dna
                0x000098f8                iic_eeprom_read_eth_addr
                0x00009a8c                iic_eeprom_read_serial_num
                0x00009af4                iic_eeprom_init
                0x00009c6c                iic_eeprom_read_byte
                0x00009cd0                iic_eeprom_wait_for_rx_ack
 .text          0x00009cf4       0x54 ../../wlan_bsp_cpu_high/mb_high/lib\libxil.a(print.o)
                0x00009cf4                print
 .text          0x00009d48       0x50 ../../wlan_bsp_cpu_high/mb_high/lib\libxil.a(xbasic_types.o)
                0x00009d48                XAssert
                0x00009d80                XAssertSetCallback
                0x00009d90                XNullHandler
 .text          0x00009d98       0x18 ../../wlan_bsp_cpu_high/mb_high/lib\libxil.a(microblaze_disable_dcache.o)
                0x00009d98                microblaze_disable_dcache
 .text          0x00009db0       0x14 ../../wlan_bsp_cpu_high/mb_high/lib\libxil.a(microblaze_disable_exceptions.o)
                0x00009db0                microblaze_disable_exceptions
 .text          0x00009dc4       0x18 ../../wlan_bsp_cpu_high/mb_high/lib\libxil.a(microblaze_disable_icache.o)
                0x00009dc4                microblaze_disable_icache
 .text          0x00009ddc       0x20 ../../wlan_bsp_cpu_high/mb_high/lib\libxil.a(microblaze_disable_interrupts.o)
                0x00009ddc                microblaze_disable_interrupts
 .text          0x00009dfc       0x20 ../../wlan_bsp_cpu_high/mb_high/lib\libxil.a(microblaze_enable_interrupts.o)
                0x00009dfc                microblaze_enable_interrupts
 .text          0x00009e1c       0x28 ../../wlan_bsp_cpu_high/mb_high/lib\libxil.a(microblaze_flush_dcache.o)
                0x00009e1c                microblaze_flush_dcache
 .text          0x00009e44       0x28 ../../wlan_bsp_cpu_high/mb_high/lib\libxil.a(microblaze_invalidate_dcache.o)
                0x00009e44                microblaze_invalidate_dcache
 .text          0x00009e6c       0x30 ../../wlan_bsp_cpu_high/mb_high/lib\libxil.a(microblaze_invalidate_dcache_range.o)
                0x00009e6c                microblaze_invalidate_dcache_range
 .text          0x00009e9c       0x28 ../../wlan_bsp_cpu_high/mb_high/lib\libxil.a(microblaze_invalidate_icache.o)
                0x00009e9c                microblaze_invalidate_icache
 .text          0x00009ec4       0x48 ../../wlan_bsp_cpu_high/mb_high/lib\libxil.a(xil_assert.o)
                0x00009ec4                Xil_Assert
                0x00009efc                Xil_AssertSetCallback
 .text          0x00009f0c      0x2fc ../../wlan_bsp_cpu_high/mb_high/lib\libxil.a(xaxicdma_bd.o)
                0x00009f0c                XAxiCdma_BdClear
                0x00009f34                XAxiCdma_BdClone
                0x0000a000                XAxiCdma_BdGetNextPtr
                0x0000a008                XAxiCdma_BdSetNextPtr
                0x0000a010                XAxiCdma_BdGetSts
                0x0000a024                XAxiCdma_BdClearSts
                0x0000a02c                XAxiCdma_BdSetSrcBufAddr
                0x0000a05c                XAxiCdma_BdGetSrcBufAddr
                0x0000a064                XAxiCdma_BdSetDstBufAddr
                0x0000a094                XAxiCdma_BdGetDstBufAddr
                0x0000a09c                XAxiCdma_BdSetLength
                0x0000a0c8                XAxiCdma_BdGetLength
                0x0000a0d0                XAxiCdma_BdSetPhysAddr
                0x0000a0d8                XAxiCdma_BdSetIsLite
                0x0000a0e0                XAxiCdma_BdSetHasDRE
                0x0000a0e8                XAxiCdma_BdSetWordLen
                0x0000a0f0                XAxiCdma_BdSetMaxLen
                0x0000a0f8                XAxiCdma_BdGetPhysAddr
                0x0000a100                XAxiCdma_DumpBd
 .text          0x0000a208       0xcc c:/xilinx/14.4/ise_ds/edk/gnu/microblaze/nt64/bin/../lib/gcc/microblaze-xilinx-elf/4.6.2/bs/m/le\libgcc.a(_fixunsdfdi.o)
                0x0000a208                __fixunsdfdi
 .text          0x0000a2d4       0x8c c:/xilinx/14.4/ise_ds/edk/gnu/microblaze/nt64/bin/../lib/gcc/microblaze-xilinx-elf/4.6.2/bs/m/le\libgcc.a(_floatundidf.o)
                0x0000a2d4                __floatundidf
 .text          0x0000a360      0x6d8 c:/xilinx/14.4/ise_ds/edk/gnu/microblaze/nt64/bin/../lib/gcc/microblaze-xilinx-elf/4.6.2/bs/m/le\libgcc.a(_udivdi3.o)
                0x0000a360                __udivdi3
 .text          0x0000aa38      0x69c c:/xilinx/14.4/ise_ds/edk/gnu/microblaze/nt64/bin/../lib/gcc/microblaze-xilinx-elf/4.6.2/bs/m/le\libgcc.a(_umoddi3.o)
                0x0000aa38                __umoddi3
 .text          0x0000b0d4      0x51c c:/xilinx/14.4/ise_ds/edk/gnu/microblaze/nt64/bin/../lib/gcc/microblaze-xilinx-elf/4.6.2/bs/m/le\libgcc.a(_addsub_df.o)
                0x0000b504                __adddf3
                0x0000b574                __subdf3
 .text          0x0000b5f0      0x41c c:/xilinx/14.4/ise_ds/edk/gnu/microblaze/nt64/bin/../lib/gcc/microblaze-xilinx-elf/4.6.2/bs/m/le\libgcc.a(_mul_df.o)
                0x0000b5f0                __muldf3
 .text          0x0000ba0c      0x288 c:/xilinx/14.4/ise_ds/edk/gnu/microblaze/nt64/bin/../lib/gcc/microblaze-xilinx-elf/4.6.2/bs/m/le\libgcc.a(_div_df.o)
                0x0000ba0c                __divdf3
 .text          0x0000bc94      0x188 c:/xilinx/14.4/ise_ds/edk/gnu/microblaze/nt64/bin/../lib/gcc/microblaze-xilinx-elf/4.6.2/bs/m/le\libgcc.a(_usi_to_df.o)
                0x0000bc94                __floatunsidf
 .text          0x0000be1c       0x9c c:/xilinx/14.4/ise_ds/edk/gnu/microblaze/nt64/bin/../lib/gcc/microblaze-xilinx-elf/4.6.2/bs/m/le\libgcc.a(modsi3.o)
                0x0000be1c                __modsi3
 .text          0x0000beb8       0xa8 c:/xilinx/14.4/ise_ds/edk/gnu/microblaze/nt64/bin/../lib/gcc/microblaze-xilinx-elf/4.6.2/bs/m/le\libgcc.a(udivsi3.o)
                0x0000beb8                __udivsi3
 .text          0x0000bf60       0xbc c:/xilinx/14.4/ise_ds/edk/gnu/microblaze/nt64/bin/../lib/gcc/microblaze-xilinx-elf/4.6.2/bs/m/le\libgcc.a(umodsi3.o)
                0x0000bf60                __umodsi3
 .text          0x0000c01c       0x70 c:/xilinx/14.4/ise_ds/edk/gnu/microblaze/nt64/bin/../lib/gcc/microblaze-xilinx-elf/4.6.2/bs/m/le\libgcc.a(_muldi3.o)
                0x0000c01c                __muldi3
 .text          0x0000c08c       0x9c c:/xilinx/14.4/ise_ds/edk/gnu/microblaze/nt64/bin/../lib/gcc/microblaze-xilinx-elf/4.6.2/bs/m/le\libgcc.a(_clzsi2.o)
                0x0000c08c                __clzsi2
 .text          0x0000c128       0x9c c:/xilinx/14.4/ise_ds/edk/gnu/microblaze/nt64/bin/../lib/gcc/microblaze-xilinx-elf/4.6.2/bs/m/le\libgcc.a(_fixunsdfsi.o)
                0x0000c128                __fixunsdfsi
 .text          0x0000c1c4      0x308 c:/xilinx/14.4/ise_ds/edk/gnu/microblaze/nt64/bin/../lib/gcc/microblaze-xilinx-elf/4.6.2/bs/m/le\libgcc.a(_pack_df.o)
                0x0000c1c4                __pack_d
 .text          0x0000c4cc      0x130 c:/xilinx/14.4/ise_ds/edk/gnu/microblaze/nt64/bin/../lib/gcc/microblaze-xilinx-elf/4.6.2/bs/m/le\libgcc.a(_unpack_df.o)
                0x0000c4cc                __unpack_d
 .text          0x0000c5fc       0x84 c:/xilinx/14.4/ise_ds/edk/gnu/microblaze/nt64/bin/../lib/gcc/microblaze-xilinx-elf/4.6.2/bs/m/le\libgcc.a(_ge_df.o)
                0x0000c5fc                __gedf2
 .text          0x0000c680       0xe4 c:/xilinx/14.4/ise_ds/edk/gnu/microblaze/nt64/bin/../lib/gcc/microblaze-xilinx-elf/4.6.2/bs/m/le\libgcc.a(_df_to_si.o)
                0x0000c680                __fixdfsi
 .text          0x0000c764       0x48 c:/xilinx/14.4/ise_ds/edk/gnu/microblaze/nt64/bin/../lib/gcc/microblaze-xilinx-elf/4.6.2/bs/m/le\libgcc.a(_lshrdi3.o)
                0x0000c764                __lshrdi3
 .text          0x0000c7ac       0x48 c:/xilinx/14.4/ise_ds/edk/gnu/microblaze/nt64/bin/../lib/gcc/microblaze-xilinx-elf/4.6.2/bs/m/le\libgcc.a(_ashldi3.o)
                0x0000c7ac                __ashldi3
 .text          0x0000c7f4      0x118 c:/xilinx/14.4/ise_ds/edk/gnu/microblaze/nt64/bin/../lib/gcc/microblaze-xilinx-elf/4.6.2/bs/m/le\libgcc.a(_fpcmp_parts_df.o)
                0x0000c7f4                __fpcmp_parts_d
 .text          0x0000c90c       0x40 ../../wlan_bsp_cpu_high/mb_high/lib\libc.a(lib_a-exit.o)
                0x0000c90c                exit
 .text          0x0000c94c       0x58 ../../wlan_bsp_cpu_high/mb_high/lib\libc.a(lib_a-malloc.o)
                0x0000c94c                malloc
                0x0000c978                free
 .text          0x0000c9a4      0x8b0 ../../wlan_bsp_cpu_high/mb_high/lib\libc.a(lib_a-mallocr.o)
                0x0000c9a4                _malloc_r
 .text          0x0000d254       0xa0 ../../wlan_bsp_cpu_high/mb_high/lib\libc.a(lib_a-memcmp.o)
                0x0000d254                memcmp
 .text          0x0000d2f4      0x1bc ../../wlan_bsp_cpu_high/mb_high/lib\libc.a(lib_a-memcpy.o)
                0x0000d2f4                memcpy
 .text          0x0000d4b0      0x20c ../../wlan_bsp_cpu_high/mb_high/lib\libc.a(lib_a-memmove.o)
                0x0000d4b0                memmove
 .text          0x0000d6bc      0x1e4 ../../wlan_bsp_cpu_high/mb_high/lib\libc.a(lib_a-memset.o)
                0x0000d6bc                memset
 .text          0x0000d8a0       0x10 ../../wlan_bsp_cpu_high/mb_high/lib\libc.a(lib_a-mlock.o)
                0x0000d8a0                __malloc_lock
                0x0000d8a8                __malloc_unlock
 .text          0x0000d8b0      0x154 ../../wlan_bsp_cpu_high/mb_high/lib\libc.a(lib_a-mstats.o)
                0x0000d8b0                mallinfo
                0x0000d8e4                malloc_stats
                0x0000d90c                mallopt
                0x0000d93c                _mstats_r
                0x0000d99c                mstats
 .text          0x0000da04      0x1dc ../../wlan_bsp_cpu_high/mb_high/lib\libc.a(lib_a-rand.o)
                0x0000da04                srand
                0x0000dac4                rand
 .text          0x0000dbe0       0x30 ../../wlan_bsp_cpu_high/mb_high/lib\libc.a(lib_a-realloc.o)
                0x0000dbe0                realloc
 .text          0x0000dc10      0x67c ../../wlan_bsp_cpu_high/mb_high/lib\libc.a(lib_a-reallocr.o)
                0x0000dc10                _realloc_r
 .text          0x0000e28c       0x5c ../../wlan_bsp_cpu_high/mb_high/lib\libc.a(lib_a-sbrkr.o)
                0x0000e28c                _sbrk_r
 .text          0x0000e2e8       0xb0 ../../wlan_bsp_cpu_high/mb_high/lib\libc.a(lib_a-strcmp.o)
                0x0000e2e8                strcmp
 .text          0x0000e398       0x5c ../../wlan_bsp_cpu_high/mb_high/lib\libc.a(lib_a-strlen.o)
                0x0000e398                strlen
 .text          0x0000e3f4      0x150 ../../wlan_bsp_cpu_high/mb_high/lib\libc.a(lib_a-strncpy.o)
                0x0000e3f4                strncpy
 .text          0x0000e544       0x30 ../../wlan_bsp_cpu_high/mb_high/lib\libc.a(lib_a-strndup.o)
                0x0000e544                strndup
 .text          0x0000e574       0xb0 ../../wlan_bsp_cpu_high/mb_high/lib\libc.a(lib_a-strndup_r.o)
                0x0000e574                _strndup_r
 .text          0x0000e624       0x80 ../../wlan_bsp_cpu_high/mb_high/lib\libc.a(lib_a-strrchr.o)
                0x0000e624                strrchr
 .text          0x0000e6a4      0x2e4 ../../wlan_bsp_cpu_high/mb_high/lib\libc.a(lib_a-__call_atexit.o)
                0x0000e6a4                __call_exitprocs
 .text          0x0000e988      0x48c ../../wlan_bsp_cpu_high/mb_high/lib\libc.a(lib_a-findfp.o)
                0x0000e998                _cleanup_r
                0x0000e9c0                __sfmoreglue
                0x0000ea30                _cleanup
                0x0000ea60                __sinit
                0x0000ec44                __sfp
                0x0000ed94                __sfp_lock_acquire
                0x0000ed9c                __sfp_lock_release
                0x0000eda4                __sinit_lock_acquire
                0x0000edac                __sinit_lock_release
                0x0000edb4                __fp_lock_all
                0x0000ede4                __fp_unlock_all
 .text          0x0000ee14       0x78 ../../wlan_bsp_cpu_high/mb_high/lib\libc.a(lib_a-fiprintf.o)
                0x0000ee14                _fiprintf_r
                0x0000ee44                fiprintf
 .text          0x0000ee8c      0x430 ../../wlan_bsp_cpu_high/mb_high/lib\libc.a(lib_a-freer.o)
                0x0000ee8c                _malloc_trim_r
                0x0000efd8                _free_r
 .text          0x0000f2bc      0x190 ../../wlan_bsp_cpu_high/mb_high/lib\libc.a(lib_a-fwalk.o)
                0x0000f2bc                _fwalk
                0x0000f37c                _fwalk_reent
 .text          0x0000f44c      0x1c4 ../../wlan_bsp_cpu_high/mb_high/lib\libc.a(lib_a-mallinfor.o)
                0x0000f44c                __malloc_update_mallinfo
                0x0000f4e4                _mallinfo_r
 .text          0x0000f610      0x12c ../../wlan_bsp_cpu_high/mb_high/lib\libc.a(lib_a-malloptr.o)
                0x0000f610                _mallopt_r
 .text          0x0000f73c       0xd4 ../../wlan_bsp_cpu_high/mb_high/lib\libc.a(lib_a-mallstatsr.o)
                0x0000f73c                _malloc_stats_r
 .text          0x0000f810      0x184 ../../wlan_bsp_cpu_high/mb_high/lib\libc.a(lib_a-stdio.o)
                0x0000f810                __sread
                0x0000f86c                __seofread
                0x0000f874                __swrite
                0x0000f90c                __sseek
                0x0000f970                __sclose
 .text          0x0000f994      0x1cc ../../wlan_bsp_cpu_high/mb_high/lib\libc.a(lib_a-strchr.o)
                0x0000f994                strchr
 .text          0x0000fb60     0x1c94 ../../wlan_bsp_cpu_high/mb_high/lib\libc.a(lib_a-vfiprintf.o)
                0x0000fb60                __sprint_r
                0x0000fc5c                _vfiprintf_r
                0x000117c0                vfiprintf
 .text          0x000117f4       0x64 ../../wlan_bsp_cpu_high/mb_high/lib\libc.a(lib_a-writer.o)
                0x000117f4                _write_r
 .text          0x00011858      0x1e4 ../../wlan_bsp_cpu_high/mb_high/lib\libc.a(lib_a-wsetup.o)
                0x00011858                __swsetup_r
 .text          0x00011a3c       0x5c ../../wlan_bsp_cpu_high/mb_high/lib\libc.a(lib_a-closer.o)
                0x00011a3c                _close_r
 .text          0x00011a98      0x1ac ../../wlan_bsp_cpu_high/mb_high/lib\libc.a(lib_a-fclose.o)
                0x00011a98                _fclose_r
                0x00011c1c                fclose
 .text          0x00011c44      0x448 ../../wlan_bsp_cpu_high/mb_high/lib\libc.a(lib_a-fflush.o)
                0x00011c44                __sflush_r
                0x00011ea8                _fflush_r
                0x00011f5c                fflush
 .text          0x0001208c      0x2b8 ../../wlan_bsp_cpu_high/mb_high/lib\libc.a(lib_a-fputwc.o)
                0x00012228                _fputwc_r
                0x00012268                fputwc
 .text          0x00012344      0x568 ../../wlan_bsp_cpu_high/mb_high/lib\libc.a(lib_a-fvwrite.o)
                0x00012344                __sfvwrite_r
 .text          0x000128ac      0x184 ../../wlan_bsp_cpu_high/mb_high/lib\libc.a(lib_a-locale.o)
                0x000128ac                _setlocale_r
                0x00012940                __locale_charset
                0x00012950                __locale_mb_cur_max
                0x00012960                __locale_msgcharset
                0x00012970                __locale_cjk_lang
                0x00012978                _localeconv_r
                0x00012988                setlocale
                0x00012a20                localeconv
 .text          0x00012a30       0x64 ../../wlan_bsp_cpu_high/mb_high/lib\libc.a(lib_a-lseekr.o)
                0x00012a30                _lseek_r
 .text          0x00012a94      0x1e4 ../../wlan_bsp_cpu_high/mb_high/lib\libc.a(lib_a-makebuf.o)
                0x00012a94                __smakebuf_r
 .text          0x00012c78       0xf8 ../../wlan_bsp_cpu_high/mb_high/lib\libc.a(lib_a-memchr.o)
                0x00012c78                memchr
 .text          0x00012d70       0x64 ../../wlan_bsp_cpu_high/mb_high/lib\libc.a(lib_a-readr.o)
                0x00012d70                _read_r
 .text          0x00012dd4      0x208 ../../wlan_bsp_cpu_high/mb_high/lib\libc.a(lib_a-wbuf.o)
                0x00012dd4                __swbuf_r
                0x00012fb0                __swbuf
 .text          0x00012fdc      0x198 ../../wlan_bsp_cpu_high/mb_high/lib\libc.a(lib_a-wcrtomb.o)
                0x00012fdc                _wcrtomb_r
                0x00013094                wcrtomb
 .text          0x00013174       0x90 ../../wlan_bsp_cpu_high/mb_high/lib\libc.a(lib_a-wctomb_r.o)
                0x00013174                __ascii_wctomb
                0x000131a8                _wctomb_r
 .text          0x00013204       0x60 ../../wlan_bsp_cpu_high/mb_high/lib\libc.a(lib_a-fstatr.o)
                0x00013204                _fstat_r
 .text          0x00013264       0x5c ../../wlan_bsp_cpu_high/mb_high/lib\libc.a(lib_a-isattyr.o)
                0x00013264                _isatty_r
 .text          0x000132c0       0x14 ../../wlan_bsp_cpu_high/mb_high/lib\libxil.a(fstat.o)
                0x000132c0                fstat
 .text          0x000132d4        0x8 ../../wlan_bsp_cpu_high/mb_high/lib\libxil.a(isatty.o)
                0x000132d4                isatty
 .text          0x000132dc       0x2c ../../wlan_bsp_cpu_high/mb_high/lib\libxil.a(lseek.o)
                0x000132dc                lseek
 .text          0x00013308       0x64 ../../wlan_bsp_cpu_high/mb_high/lib\libxil.a(sbrk.o)
                0x00013308                sbrk
 .text          0x0001336c       0x94 ../../wlan_bsp_cpu_high/mb_high/lib\libxil.a(write.o)
                0x0001336c                write
 .text          0x00013400       0x8c ../../wlan_bsp_cpu_high/mb_high/lib\libxil.a(read.o)
                0x00013400                read
 .text          0x0001348c        0x8 ../../wlan_bsp_cpu_high/mb_high/lib\libxil.a(close.o)
                0x0001348c                close
 .text          0x00013494       0x10 ../../wlan_bsp_cpu_high/mb_high/lib\libxil.a(errno.o)
                0x00013494                __errno
 .text          0x000134a4       0x2c ../../wlan_bsp_cpu_high/mb_high/lib\libxil.a(inbyte.o)
                0x000134a4                inbyte
 .text          0x000134d0       0x4c c:/xilinx/14.4/ise_ds/edk/gnu/microblaze/nt64/bin/../lib/gcc/microblaze-xilinx-elf/4.6.2/bs/m/le/crtend.o
 *(.text.*)
 .text.wlan_platform_ethernet_send
                0x0001351c      0x1c8 ./wlan_platform_high/w3_eth.o
                0x0001351c                wlan_platform_ethernet_send
 .text.w3_wlan_platform_ethernet_setup_interrupt
                0x000136e4       0x8c ./wlan_platform_high/w3_eth.o
                0x000136e4                w3_wlan_platform_ethernet_setup_interrupt
 .text._wlan_eth_dma_init
                0x00013770      0x3f4 ./wlan_platform_high/w3_eth.o
                0x00013770                _wlan_eth_dma_init
 .text.w3_wlan_platform_ethernet_init
                0x00013b64      0x1e0 ./wlan_platform_high/w3_eth.o
                0x00013b64                w3_wlan_platform_ethernet_init
 .text._wlan_eth_dma_update
                0x00013d44      0x28c ./wlan_platform_high/w3_eth.o
                0x00013d44                _wlan_eth_dma_update
 .text._wlan_process_all_eth_pkts
                0x00013fd0      0x1f4 ./wlan_platform_high/w3_eth.o
                0x00013fd0                _wlan_process_all_eth_pkts
 .text._eth_rx_interrupt_handler
                0x000141c4       0x8c ./wlan_platform_high/w3_eth.o
                0x000141c4                _eth_rx_interrupt_handler
 .text.w3_wlan_platform_ethernet_free_queue_entry_notify
                0x00014250       0x20 ./wlan_platform_high/w3_eth.o
                0x00014250                w3_wlan_platform_ethernet_free_queue_entry_notify
 .text.wlan_platform_high_get_dev_info
                0x00014270       0x88 ./wlan_platform_high/w3_high.o
                0x00014270                wlan_platform_high_get_dev_info
 .text.wlan_platform_high_init
                0x000142f8       0x7c ./wlan_platform_high/w3_high.o
                0x000142f8                wlan_platform_high_init
 .text.wlan_platform_free_queue_entry_notify
                0x00014374       0x20 ./wlan_platform_high/w3_high.o
                0x00014374                wlan_platform_free_queue_entry_notify
 .text.wlan_platform_high_userio_disp_status
                0x00014394      0x1b0 ./wlan_platform_high/w3_high.o
                0x00014394                wlan_platform_high_userio_disp_status
 .text.wlan_platform_wlan_exp_process_node_cmd
                0x00014544      0x600 ./wlan_platform_high/w3_high.o
                0x00014544                wlan_platform_wlan_exp_process_node_cmd
 .text.wlan_platform_wlan_exp_eth_init
                0x00014b44        0x8 ./wlan_platform_high/w3_high.o
                0x00014b44                wlan_platform_wlan_exp_eth_init
 .text._w3_high_userio_gpio_handler
                0x00014b4c      0x17c ./wlan_platform_high/w3_high_userio.o
                0x00014b4c                _w3_high_userio_gpio_handler
 .text.w3_high_userio_init
                0x00014cc8       0x7c ./wlan_platform_high/w3_high_userio.o
                0x00014cc8                w3_high_userio_init
 .text.w3_high_userio_setup_interrupt
                0x00014d44       0xc8 ./wlan_platform_high/w3_high_userio.o
                0x00014d44                w3_high_userio_setup_interrupt
 .text._w3_uart_rx_handler
                0x00014e0c       0x44 ./wlan_platform_high/w3_uart.o
                0x00014e0c                _w3_uart_rx_handler
 .text.w3_uart_init
                0x00014e50       0x48 ./wlan_platform_high/w3_uart.o
                0x00014e50                w3_uart_init
 .text.w3_uart_setup_interrupt
                0x00014e98       0xb0 ./wlan_platform_high/w3_uart.o
                0x00014e98                w3_uart_setup_interrupt
 .text.wlan_platform_common_get_dev_info
                0x00014f48       0x50 ./wlan_platform_common/w3_common.o
                0x00014f48                wlan_platform_common_get_dev_info
 .text.wlan_platform_common_init
                0x00014f98       0x40 ./wlan_platform_common/w3_common.o
                0x00014f98                wlan_platform_common_init
 .text.wlan_platform_get_hw_info
                0x00014fd8       0xdc ./wlan_platform_common/w3_common.o
                0x00014fd8                wlan_platform_get_hw_info
 .text.wlan_platform_userio_get_state
                0x000150b4       0x60 ./wlan_platform_common/w3_common.o
                0x000150b4                wlan_platform_userio_get_state
 .text.get_mac_time_usec
                0x00015114       0x58 ./wlan_platform_common/w3_mac_time_util.o
                0x00015114                get_mac_time_usec
 .text.get_system_time_usec
                0x0001516c       0x58 ./wlan_platform_common/w3_mac_time_util.o
                0x0001516c                get_system_time_usec
 .text.set_mac_time_usec
                0x000151c4       0x44 ./wlan_platform_common/w3_mac_time_util.o
                0x000151c4                set_mac_time_usec
 .text.wlan_usleep
                0x00015208       0xe0 ./wlan_platform_common/w3_mac_time_util.o
                0x00015208                wlan_usleep
 .text.init_sysmon
                0x000152e8       0x9c ./wlan_platform_common/w3_sysmon_util.o
                0x000152e8                init_sysmon
 .text.wlan_platform_get_current_temp
                0x00015384       0x10 ./wlan_platform_common/w3_sysmon_util.o
                0x00015384                wlan_platform_get_current_temp
 .text.wlan_platform_get_min_temp
                0x00015394       0x10 ./wlan_platform_common/w3_sysmon_util.o
                0x00015394                wlan_platform_get_min_temp
 .text.wlan_platform_get_max_temp
                0x000153a4       0x10 ./wlan_platform_common/w3_sysmon_util.o
                0x000153a4                wlan_platform_get_max_temp
 .text.enable_hex_pwm
                0x000153b4       0x20 ./wlan_platform_common/w3_userio_util.o
                0x000153b4                enable_hex_pwm
 .text.set_hex_pwm_period
                0x000153d4       0x28 ./wlan_platform_common/w3_userio_util.o
                0x000153d4                set_hex_pwm_period
 .text.set_hex_pwm_min_max
                0x000153fc       0x50 ./wlan_platform_common/w3_userio_util.o
                0x000153fc                set_hex_pwm_min_max
 .text.write_hex_display
                0x0001544c       0xec ./wlan_platform_common/w3_userio_util.o
                0x0001544c                write_hex_display
 .text.write_hex_display_with_pwm
                0x00015538      0x124 ./wlan_platform_common/w3_userio_util.o
                0x00015538                write_hex_display_with_pwm
 .text.set_hex_display_error_status
                0x0001565c       0x50 ./wlan_platform_common/w3_userio_util.o
                0x0001565c                set_hex_display_error_status
 .text.blink_hex_display
                0x000156ac      0x140 ./wlan_platform_common/w3_userio_util.o
                0x000156ac                blink_hex_display
 .text.set_hex_display_right_dp
                0x000157ec       0x34 ./wlan_platform_common/w3_userio_util.o
                0x000157ec                set_hex_display_right_dp
 .text.wlan_exp_print_header.constprop.0
                0x00015820      0x120 ./wlan_mac_high_framework/wlan_exp_common.o
 .text.wlan_exp_print_header
                0x00015940      0x14c ./wlan_mac_high_framework/wlan_exp_common.o
                0x00015940                wlan_exp_print_header
 .text.wlan_exp_print_mac_address
                0x00015a8c       0xa8 ./wlan_mac_high_framework/wlan_exp_common.o
                0x00015a8c                wlan_exp_print_mac_address
 .text.wlan_exp_set_print_level
                0x00015b34       0x54 ./wlan_mac_high_framework/wlan_exp_common.o
                0x00015b34                wlan_exp_set_print_level
 .text.wlan_exp_null_callback
                0x00015b88       0x58 ./wlan_mac_high_framework/wlan_exp_common.o
                0x00015b88                wlan_exp_null_callback
 .text.wlan_exp_get_mac_addr
                0x00015be0       0x34 ./wlan_mac_high_framework/wlan_exp_common.o
                0x00015be0                wlan_exp_get_mac_addr
 .text.wlan_exp_put_mac_addr
                0x00015c14       0x48 ./wlan_mac_high_framework/wlan_exp_common.o
                0x00015c14                wlan_exp_put_mac_addr
 .text.wlan_exp_init_parameters
                0x00015c5c       0x78 ./wlan_mac_high_framework/wlan_exp_common.o
                0x00015c5c                wlan_exp_init_parameters
 .text.wlan_exp_get_parameters
                0x00015cd4      0x264 ./wlan_mac_high_framework/wlan_exp_common.o
                0x00015cd4                wlan_exp_get_parameters
 .text.wlan_exp_get_id_in_counts
                0x00015f38       0x8c ./wlan_mac_high_framework/wlan_exp_node.o
                0x00015f38                wlan_exp_get_id_in_counts
 .text.wlan_exp_get_id_in_associated_stations
                0x00015fc4       0x9c ./wlan_mac_high_framework/wlan_exp_node.o
                0x00015fc4                wlan_exp_get_id_in_associated_stations
 .text.find_counts_txrx
                0x00016060       0x20 ./wlan_mac_high_framework/wlan_exp_node.o
                0x00016060                find_counts_txrx
 .text.ltg_cleanup
                0x00016080       0x20 ./wlan_mac_high_framework/wlan_exp_node.o
                0x00016080                ltg_cleanup
 .text.zero_bss_info
                0x000160a0       0x24 ./wlan_mac_high_framework/wlan_exp_node.o
                0x000160a0                zero_bss_info
 .text.zero_counts_txrx
                0x000160c4       0x28 ./wlan_mac_high_framework/wlan_exp_node.o
                0x000160c4                zero_counts_txrx
 .text.zero_station_info
                0x000160ec       0x24 ./wlan_mac_high_framework/wlan_exp_node.o
                0x000160ec                zero_station_info
 .text.copy_bss_info_to_dest
                0x00016110      0x148 ./wlan_mac_high_framework/wlan_exp_node.o
                0x00016110                copy_bss_info_to_dest
 .text.copy_station_info_to_dest
                0x00016258      0x12c ./wlan_mac_high_framework/wlan_exp_node.o
                0x00016258                copy_station_info_to_dest
 .text.copy_counts_txrx_to_dest
                0x00016384      0x174 ./wlan_mac_high_framework/wlan_exp_node.o
                0x00016384                copy_counts_txrx_to_dest
 .text.find_station_info
                0x000164f8       0x3c ./wlan_mac_high_framework/wlan_exp_node.o
                0x000164f8                find_station_info
 .text.wlan_exp_get_id_in_bss_info
                0x00016534       0x68 ./wlan_mac_high_framework/wlan_exp_node.o
                0x00016534                wlan_exp_get_id_in_bss_info
 .text.null_process_cmd_callback
                0x0001659c       0x64 ./wlan_mac_high_framework/wlan_exp_node.o
                0x0001659c                null_process_cmd_callback
 .text.wlan_exp_node_init
                0x00016600      0x3c4 ./wlan_mac_high_framework/wlan_exp_node.o
                0x00016600                wlan_exp_node_init
 .text.wlan_exp_node_set_type_high
                0x000169c4      0x118 ./wlan_mac_high_framework/wlan_exp_node.o
                0x000169c4                wlan_exp_node_set_type_high
 .text.wlan_exp_node_set_type_low
                0x00016adc       0xe4 ./wlan_mac_high_framework/wlan_exp_node.o
                0x00016adc                wlan_exp_node_set_type_low
 .text.process_buffer_cmds
                0x00016bc0      0x6f8 ./wlan_mac_high_framework/wlan_exp_node.o
                0x00016bc0                process_buffer_cmds
 .text.transfer_log_data
                0x000172b8      0x464 ./wlan_mac_high_framework/wlan_exp_node.o
                0x000172b8                transfer_log_data
 .text.process_node_cmd
                0x0001771c     0x4490 ./wlan_mac_high_framework/wlan_exp_node.o
                0x0001771c                process_node_cmd
 .text.process_hton_msg
                0x0001bbac      0x1d8 ./wlan_mac_high_framework/wlan_exp_node.o
                0x0001bbac                process_hton_msg
 .text.wlan_exp_set_process_node_cmd_callback
                0x0001bd84       0x10 ./wlan_mac_high_framework/wlan_exp_node.o
                0x0001bd84                wlan_exp_set_process_node_cmd_callback
 .text.wlan_exp_set_purge_all_data_tx_queue_callback
                0x0001bd94       0x10 ./wlan_mac_high_framework/wlan_exp_node.o
                0x0001bd94                wlan_exp_set_purge_all_data_tx_queue_callback
 .text.wlan_exp_set_process_user_cmd_callback
                0x0001bda4       0x10 ./wlan_mac_high_framework/wlan_exp_node.o
                0x0001bda4                wlan_exp_set_process_user_cmd_callback
 .text.wlan_exp_set_beacon_ts_update_mode_callback
                0x0001bdb4       0x10 ./wlan_mac_high_framework/wlan_exp_node.o
                0x0001bdb4                wlan_exp_set_beacon_ts_update_mode_callback
 .text.wlan_exp_set_process_config_bss_callback
                0x0001bdc4       0x10 ./wlan_mac_high_framework/wlan_exp_node.o
                0x0001bdc4                wlan_exp_set_process_config_bss_callback
 .text.wlan_exp_set_active_network_info_getter_callback
                0x0001bdd4       0x10 ./wlan_mac_high_framework/wlan_exp_node.o
                0x0001bdd4                wlan_exp_set_active_network_info_getter_callback
 .text.node_get_parameter_values
                0x0001bde4       0x38 ./wlan_mac_high_framework/wlan_exp_node.o
                0x0001bde4                node_get_parameter_values
 .text.transport_send.constprop.4
                0x0001be1c      0x1b0 ./wlan_mac_high_framework/wlan_exp_transport.o
 .text.transport_eth_dev_info_init
                0x0001bfcc      0x168 ./wlan_mac_high_framework/wlan_exp_transport.o
                0x0001bfcc                transport_eth_dev_info_init
 .text.transport_receive
                0x0001c134      0x320 ./wlan_mac_high_framework/wlan_exp_transport.o
                0x0001c134                transport_receive
 .text.transport_poll
                0x0001c454       0x8c ./wlan_mac_high_framework/wlan_exp_transport.o
                0x0001c454                transport_poll
 .text.transport_send
                0x0001c4e0      0x1ec ./wlan_mac_high_framework/wlan_exp_transport.o
                0x0001c4e0                transport_send
 .text.process_transport_cmd
                0x0001c6cc      0x284 ./wlan_mac_high_framework/wlan_exp_transport.o
                0x0001c6cc                process_transport_cmd
 .text.transport_set_process_hton_msg_callback
                0x0001c950       0x14 ./wlan_mac_high_framework/wlan_exp_transport.o
                0x0001c950                transport_set_process_hton_msg_callback
 .text.transport_config_socket
                0x0001c964      0x160 ./wlan_mac_high_framework/wlan_exp_transport.o
                0x0001c964                transport_config_socket
 .text.transport_config_sockets
                0x0001cac4       0xe4 ./wlan_mac_high_framework/wlan_exp_transport.o
                0x0001cac4                transport_config_sockets
 .text.transport_link_status
                0x0001cba8       0xd8 ./wlan_mac_high_framework/wlan_exp_transport.o
                0x0001cba8                transport_link_status
 .text.transport_set_phy_link_speed
                0x0001cc80      0x144 ./wlan_mac_high_framework/wlan_exp_transport.o
                0x0001cc80                transport_set_phy_link_speed
 .text.transport_init
                0x0001cdc4      0x59c ./wlan_mac_high_framework/wlan_exp_transport.o
                0x0001cdc4                transport_init
 .text.transport_set_ip_addr
                0x0001d360       0x54 ./wlan_mac_high_framework/wlan_exp_transport.o
                0x0001d360                transport_set_ip_addr
 .text.transport_reset_max_pkt_length
                0x0001d3b4       0x18 ./wlan_mac_high_framework/wlan_exp_transport.o
                0x0001d3b4                transport_reset_max_pkt_length
 .text.transport_get_parameters
                0x0001d3cc       0x40 ./wlan_mac_high_framework/wlan_exp_transport.o
                0x0001d3cc                transport_get_parameters
 .text.process_user_cmd
                0x0001d40c       0x5c ./wlan_mac_high_framework/wlan_exp_user.o
                0x0001d40c                process_user_cmd
 .text.wlan_mac_addr_filter_init
                0x0001d468       0x28 ./wlan_mac_high_framework/wlan_mac_addr_filter.o
                0x0001d468                wlan_mac_addr_filter_init
 .text.wlan_mac_addr_is_mango
                0x0001d490       0xfc ./wlan_mac_high_framework/wlan_mac_addr_filter.o
                0x0001d490                wlan_mac_addr_is_mango
 .text.wlan_exp_log_get_entry_en_mask
                0x0001d58c       0x10 ./wlan_mac_high_framework/wlan_mac_entries.o
                0x0001d58c                wlan_exp_log_get_entry_en_mask
 .text.wlan_exp_log_set_entry_en_mask
                0x0001d59c       0x10 ./wlan_mac_high_framework/wlan_mac_entries.o
                0x0001d59c                wlan_exp_log_set_entry_en_mask
 .text.wlan_exp_log_reset_system_time_id
                0x0001d5ac       0x18 ./wlan_mac_high_framework/wlan_mac_entries.o
                0x0001d5ac                wlan_exp_log_reset_system_time_id
 .text.wlan_exp_log_get_mac_payload_len
                0x0001d5c4       0x10 ./wlan_mac_high_framework/wlan_mac_entries.o
                0x0001d5c4                wlan_exp_log_get_mac_payload_len
 .text.wlan_exp_log_set_mac_payload_len
                0x0001d5d4       0x4c ./wlan_mac_high_framework/wlan_mac_entries.o
                0x0001d5d4                wlan_exp_log_set_mac_payload_len
 .text.wlan_exp_log_create_entry
                0x0001d620       0x20 ./wlan_mac_high_framework/wlan_mac_entries.o
                0x0001d620                wlan_exp_log_create_entry
 .text.wlan_exp_log_get_txrx_entry_sizes
                0x0001d640      0x1c0 ./wlan_mac_high_framework/wlan_mac_entries.o
                0x0001d640                wlan_exp_log_get_txrx_entry_sizes
 .text.wlan_exp_log_create_rx_entry
                0x0001d800      0x74c ./wlan_mac_high_framework/wlan_mac_entries.o
                0x0001d800                wlan_exp_log_create_rx_entry
 .text.wlan_exp_log_create_tx_high_entry
                0x0001df4c      0x1ac ./wlan_mac_high_framework/wlan_mac_entries.o
                0x0001df4c                wlan_exp_log_create_tx_high_entry
 .text.wlan_exp_log_create_tx_low_entry
                0x0001e0f8      0x474 ./wlan_mac_high_framework/wlan_mac_entries.o
                0x0001e0f8                wlan_exp_log_create_tx_low_entry
 .text.add_node_info_entry
                0x0001e56c       0xc4 ./wlan_mac_high_framework/wlan_mac_entries.o
                0x0001e56c                add_node_info_entry
 .text.add_time_info_entry
                0x0001e630       0xd0 ./wlan_mac_high_framework/wlan_mac_entries.o
                0x0001e630                add_time_info_entry
 .text.wlan_eth_util_init
                0x0001e700       0x24 ./wlan_mac_high_framework/wlan_mac_eth_util.o
                0x0001e700                wlan_eth_util_init
 .text.wlan_mac_util_set_eth_rx_callback
                0x0001e724       0x10 ./wlan_mac_high_framework/wlan_mac_eth_util.o
                0x0001e724                wlan_mac_util_set_eth_rx_callback
 .text.wlan_mac_util_set_eth_encap_mode
                0x0001e734       0x10 ./wlan_mac_high_framework/wlan_mac_eth_util.o
                0x0001e734                wlan_mac_util_set_eth_encap_mode
 .text.wlan_eth_encap
                0x0001e744      0x2c8 ./wlan_mac_high_framework/wlan_mac_eth_util.o
                0x0001e744                wlan_eth_encap
 .text.wlan_process_eth_rx
                0x0001ea0c       0xd8 ./wlan_mac_high_framework/wlan_mac_eth_util.o
                0x0001ea0c                wlan_process_eth_rx
 .text.wlan_mpdu_eth_send
                0x0001eae4      0x4b4 ./wlan_mac_high_framework/wlan_mac_eth_util.o
                0x0001eae4                wlan_mpdu_eth_send
 .text.wlan_eth_portal_en
                0x0001ef98       0x10 ./wlan_mac_high_framework/wlan_mac_eth_util.o
                0x0001ef98                wlan_eth_portal_en
 .text.event_log_init
                0x0001efa8      0x178 ./wlan_mac_high_framework/wlan_mac_event_log.o
                0x0001efa8                event_log_init
 .text.event_log_reset
                0x0001f120       0x7c ./wlan_mac_high_framework/wlan_mac_event_log.o
                0x0001f120                event_log_reset
 .text.event_log_config_wrap
                0x0001f19c       0x3c ./wlan_mac_high_framework/wlan_mac_event_log.o
                0x0001f19c                event_log_config_wrap
 .text.event_log_config_logging
                0x0001f1d8       0x3c ./wlan_mac_high_framework/wlan_mac_event_log.o
                0x0001f1d8                event_log_config_logging
 .text.event_log_get_data
                0x0001f214      0x104 ./wlan_mac_high_framework/wlan_mac_event_log.o
                0x0001f214                event_log_get_data
 .text.event_log_get_size
                0x0001f318       0x3c ./wlan_mac_high_framework/wlan_mac_event_log.o
                0x0001f318                event_log_get_size
 .text.event_log_get_total_size
                0x0001f354       0xb0 ./wlan_mac_high_framework/wlan_mac_event_log.o
                0x0001f354                event_log_get_total_size
 .text.event_log_get_capacity
                0x0001f404       0x10 ./wlan_mac_high_framework/wlan_mac_event_log.o
                0x0001f404                event_log_get_capacity
 .text.event_log_get_next_entry_index
                0x0001f414       0x18 ./wlan_mac_high_framework/wlan_mac_event_log.o
                0x0001f414                event_log_get_next_entry_index
 .text.event_log_get_oldest_entry_index
                0x0001f42c       0x18 ./wlan_mac_high_framework/wlan_mac_event_log.o
                0x0001f42c                event_log_get_oldest_entry_index
 .text.event_log_get_num_wraps
                0x0001f444       0x10 ./wlan_mac_high_framework/wlan_mac_event_log.o
                0x0001f444                event_log_get_num_wraps
 .text.event_log_get_flags
                0x0001f454       0x24 ./wlan_mac_high_framework/wlan_mac_event_log.o
                0x0001f454                event_log_get_flags
 .text.event_log_increment_oldest_address
                0x0001f478      0x1a4 ./wlan_mac_high_framework/wlan_mac_event_log.o
                0x0001f478                event_log_increment_oldest_address
 .text.event_log_get_next_empty_address
                0x0001f61c      0x3f8 ./wlan_mac_high_framework/wlan_mac_event_log.o
                0x0001f61c                event_log_get_next_empty_address
 .text.event_log_get_next_empty_entry
                0x0001fa14       0xbc ./wlan_mac_high_framework/wlan_mac_event_log.o
                0x0001fa14                event_log_get_next_empty_entry
 .text.print_event_log_size
                0x0001fad0       0xe8 ./wlan_mac_high_framework/wlan_mac_event_log.o
                0x0001fad0                print_event_log_size
 .text.wlan_mac_high_uart_rx_callback
                0x0001fbb8       0x24 ./wlan_mac_high_framework/wlan_mac_high.o
                0x0001fbb8                wlan_mac_high_uart_rx_callback
 .text.wlan_mac_high_interrupt_restore_state
                0x0001fbdc       0x70 ./wlan_mac_high_framework/wlan_mac_high.o
                0x0001fbdc                wlan_mac_high_interrupt_restore_state
 .text.wlan_mac_high_interrupt_stop
                0x0001fc4c       0x68 ./wlan_mac_high_framework/wlan_mac_high.o
                0x0001fc4c                wlan_mac_high_interrupt_stop
 .text.wlan_mac_high_userio_inputs_callback
                0x0001fcb4       0xd4 ./wlan_mac_high_framework/wlan_mac_high.o
                0x0001fcb4                wlan_mac_high_userio_inputs_callback
 .text.wlan_mac_high_set_uart_rx_callback
                0x0001fd88       0x10 ./wlan_mac_high_framework/wlan_mac_high.o
                0x0001fd88                wlan_mac_high_set_uart_rx_callback
 .text.wlan_mac_high_set_mpdu_rx_callback
                0x0001fd98       0x10 ./wlan_mac_high_framework/wlan_mac_high.o
                0x0001fd98                wlan_mac_high_set_mpdu_rx_callback
 .text.wlan_mac_high_set_poll_tx_queues_callback
                0x0001fda8       0x10 ./wlan_mac_high_framework/wlan_mac_high.o
                0x0001fda8                wlan_mac_high_set_poll_tx_queues_callback
 .text.wlan_mac_high_display_mallinfo
                0x0001fdb8      0x110 ./wlan_mac_high_framework/wlan_mac_high.o
                0x0001fdb8                wlan_mac_high_display_mallinfo
 .text.wlan_mac_high_malloc
                0x0001fec8       0x60 ./wlan_mac_high_framework/wlan_mac_high.o
                0x0001fec8                wlan_mac_high_malloc
 .text.wlan_mac_high_realloc
                0x0001ff28       0x60 ./wlan_mac_high_framework/wlan_mac_high.o
                0x0001ff28                wlan_mac_high_realloc
 .text.wlan_mac_high_free
                0x0001ff88       0x34 ./wlan_mac_high_framework/wlan_mac_high.o
                0x0001ff88                wlan_mac_high_free
 .text.wlan_mac_high_memory_test
                0x0001ffbc      0x304 ./wlan_mac_high_framework/wlan_mac_high.o
                0x0001ffbc                wlan_mac_high_memory_test
 .text.wlan_mac_high_init
                0x000202c0      0xb0c ./wlan_mac_high_framework/wlan_mac_high.o
                0x000202c0                wlan_mac_high_init
 .text.wlan_mac_high_cdma_start_transfer
                0x00020dcc      0x1b0 ./wlan_mac_high_framework/wlan_mac_high.o
                0x00020dcc                wlan_mac_high_cdma_start_transfer
 .text.wlan_mac_high_cdma_finish_transfer
                0x00020f7c       0x2c ./wlan_mac_high_framework/wlan_mac_high.o
                0x00020f7c                wlan_mac_high_cdma_finish_transfer
 .text.wlan_mac_high_mpdu_transmit
                0x00020fa8      0x2f4 ./wlan_mac_high_framework/wlan_mac_high.o
                0x00020fa8                wlan_mac_high_mpdu_transmit
 .text.wlan_mac_high_setup_tx_header
                0x0002129c        0xc ./wlan_mac_high_framework/wlan_mac_high.o
                0x0002129c                wlan_mac_high_setup_tx_header
 .text.wlan_mac_high_process_ipc_msg
                0x000212a8      0x83c ./wlan_mac_high_framework/wlan_mac_high.o
                0x000212a8                wlan_mac_high_process_ipc_msg
 .text.wlan_mac_high_set_srand
                0x00021ae4       0x48 ./wlan_mac_high_framework/wlan_mac_high.o
                0x00021ae4                wlan_mac_high_set_srand
 .text.wlan_mac_high_bss_channel_spec_to_radio_chan
                0x00021b2c        0xc ./wlan_mac_high_framework/wlan_mac_high.o
                0x00021b2c                wlan_mac_high_bss_channel_spec_to_radio_chan
 .text.wlan_mac_high_set_radio_channel
                0x00021b38       0x80 ./wlan_mac_high_framework/wlan_mac_high.o
                0x00021b38                wlan_mac_high_set_radio_channel
 .text.wlan_mac_high_config_txrx_beacon
                0x00021bb8       0x34 ./wlan_mac_high_framework/wlan_mac_high.o
                0x00021bb8                wlan_mac_high_config_txrx_beacon
 .text.wlan_mac_high_set_rx_ant_mode
                0x00021bec       0x74 ./wlan_mac_high_framework/wlan_mac_high.o
                0x00021bec                wlan_mac_high_set_rx_ant_mode
 .text.wlan_mac_high_set_tx_ctrl_power
                0x00021c60       0x48 ./wlan_mac_high_framework/wlan_mac_high.o
                0x00021c60                wlan_mac_high_set_tx_ctrl_power
 .text.wlan_mac_high_set_radio_tx_power
                0x00021ca8       0x48 ./wlan_mac_high_framework/wlan_mac_high.o
                0x00021ca8                wlan_mac_high_set_radio_tx_power
 .text.wlan_mac_high_set_rx_filter_mode
                0x00021cf0       0x48 ./wlan_mac_high_framework/wlan_mac_high.o
                0x00021cf0                wlan_mac_high_set_rx_filter_mode
 .text.wlan_mac_high_write_low_mem
                0x00021d38       0x50 ./wlan_mac_high_framework/wlan_mac_high.o
                0x00021d38                wlan_mac_high_write_low_mem
 .text.wlan_mac_high_read_low_mem
                0x00021d88      0x140 ./wlan_mac_high_framework/wlan_mac_high.o
                0x00021d88                wlan_mac_high_read_low_mem
 .text.wlan_mac_high_write_low_param
                0x00021ec8       0x50 ./wlan_mac_high_framework/wlan_mac_high.o
                0x00021ec8                wlan_mac_high_write_low_param
 .text.wlan_mac_high_set_dsss
                0x00021f18       0x48 ./wlan_mac_high_framework/wlan_mac_high.o
                0x00021f18                wlan_mac_high_set_dsss
 .text.wlan_mac_num_tx_pkt_buf_available
                0x00021f60      0x2b4 ./wlan_mac_high_framework/wlan_mac_high.o
                0x00021f60                wlan_mac_num_tx_pkt_buf_available
 .text.wlan_mac_high_get_empty_tx_packet_buffer
                0x00022214       0x88 ./wlan_mac_high_framework/wlan_mac_high.o
                0x00022214                wlan_mac_high_get_empty_tx_packet_buffer
 .text.wlan_mac_high_is_pkt_ltg
                0x0002229c       0x48 ./wlan_mac_high_framework/wlan_mac_high.o
                0x0002229c                wlan_mac_high_is_pkt_ltg
 .text.wlan_mac_high_update_beacon_tx_params
                0x000222e4       0xc8 ./wlan_mac_high_framework/wlan_mac_high.o
                0x000222e4                wlan_mac_high_update_beacon_tx_params
 .text._mailbox_rx_watchdog
                0x000223ac       0x4c ./wlan_mac_high_framework/wlan_mac_high_mailbox_util.o
                0x000223ac                _mailbox_rx_watchdog
 .text.mailbox_int_handler
                0x000223f8       0xa8 ./wlan_mac_high_framework/wlan_mac_high_mailbox_util.o
                0x000223f8                mailbox_int_handler
 .text.wlan_mac_high_init_mailbox
                0x000224a0      0x108 ./wlan_mac_high_framework/wlan_mac_high_mailbox_util.o
                0x000224a0                wlan_mac_high_init_mailbox
 .text.setup_mailbox_interrupt
                0x000225a8       0xe0 ./wlan_mac_high_framework/wlan_mac_high_mailbox_util.o
                0x000225a8                setup_mailbox_interrupt
 .text.ltg_sched_check
                0x00022688      0x2f4 ./wlan_mac_high_framework/wlan_mac_ltg.o
                0x00022688                ltg_sched_check
 .text.wlan_mac_ltg_sched_set_callback
                0x0002297c       0x10 ./wlan_mac_high_framework/wlan_mac_ltg.o
                0x0002297c                wlan_mac_ltg_sched_set_callback
 .text.ltg_sched_create
                0x0002298c      0x310 ./wlan_mac_high_framework/wlan_mac_ltg.o
                0x0002298c                ltg_sched_create
 .text.ltg_sched_start_l
                0x00022c9c      0x230 ./wlan_mac_high_framework/wlan_mac_ltg.o
                0x00022c9c                ltg_sched_start_l
 .text.ltg_sched_start
                0x00022ecc      0x148 ./wlan_mac_high_framework/wlan_mac_ltg.o
                0x00022ecc                ltg_sched_start
 .text.ltg_sched_stop
                0x00023014      0x20c ./wlan_mac_high_framework/wlan_mac_ltg.o
                0x00023014                ltg_sched_stop
 .text.ltg_sched_remove_all
                0x00023220      0x164 ./wlan_mac_high_framework/wlan_mac_ltg.o
                0x00023220                ltg_sched_remove_all
 .text.ltg_sched_remove
                0x00023384      0x1bc ./wlan_mac_high_framework/wlan_mac_ltg.o
                0x00023384                ltg_sched_remove
 .text.wlan_mac_ltg_sched_init
                0x00023540       0x74 ./wlan_mac_high_framework/wlan_mac_ltg.o
                0x00023540                wlan_mac_ltg_sched_init
 .text.ltg_sched_find_tg_schedule
                0x000235b4       0x6c ./wlan_mac_high_framework/wlan_mac_ltg.o
                0x000235b4                ltg_sched_find_tg_schedule
 .text.wlan_create_ltg_frame
                0x00023620       0x74 ./wlan_mac_high_framework/wlan_mac_ltg.o
                0x00023620                wlan_create_ltg_frame
 .text.ltg_sched_deserialize
                0x00023694      0x2ac ./wlan_mac_high_framework/wlan_mac_ltg.o
                0x00023694                ltg_sched_deserialize
 .text.ltg_payload_deserialize
                0x00023940      0x29c ./wlan_mac_high_framework/wlan_mac_ltg.o
                0x00023940                ltg_payload_deserialize
 .text.network_info_timestamp_check
                0x00023bdc      0x20c ./wlan_mac_high_framework/wlan_mac_network_info.o
                0x00023bdc                network_info_timestamp_check
 .text.network_info_init
                0x00023de8       0xf4 ./wlan_mac_high_framework/wlan_mac_network_info.o
                0x00023de8                network_info_init
 .text.network_info_init_finish
                0x00023edc       0x34 ./wlan_mac_high_framework/wlan_mac_network_info.o
                0x00023edc                network_info_init_finish
 .text.network_info_rx_process
                0x00023f10      0x564 ./wlan_mac_high_framework/wlan_mac_network_info.o
                0x00023f10                network_info_rx_process
 .text.print_network_info
                0x00024474      0x2d4 ./wlan_mac_high_framework/wlan_mac_network_info.o
                0x00024474                print_network_info
 .text.wlan_mac_high_find_network_info_SSID
                0x00024748      0x14c ./wlan_mac_high_framework/wlan_mac_network_info.o
                0x00024748                wlan_mac_high_find_network_info_SSID
 .text.wlan_mac_high_find_network_info_BSSID
                0x00024894       0xa4 ./wlan_mac_high_framework/wlan_mac_network_info.o
                0x00024894                wlan_mac_high_find_network_info_BSSID
 .text.wlan_mac_high_create_network_info
                0x00024938      0x374 ./wlan_mac_high_framework/wlan_mac_network_info.o
                0x00024938                wlan_mac_high_create_network_info
 .text.wlan_mac_high_reset_network_list
                0x00024cac      0x1b8 ./wlan_mac_high_framework/wlan_mac_network_info.o
                0x00024cac                wlan_mac_high_reset_network_list
 .text.wlan_mac_high_get_network_info_list
                0x00024e64       0x10 ./wlan_mac_high_framework/wlan_mac_network_info.o
                0x00024e64                wlan_mac_high_get_network_info_list
 .text.wlan_create_probe_req_frame
                0x00024e74      0x19c ./wlan_mac_high_framework/wlan_mac_packet_types.o
                0x00024e74                wlan_create_probe_req_frame
 .text.wlan_create_auth_frame
                0x00025010       0xc4 ./wlan_mac_high_framework/wlan_mac_packet_types.o
                0x00025010                wlan_create_auth_frame
 .text.wlan_create_deauth_disassoc_frame
                0x000250d4       0xb8 ./wlan_mac_high_framework/wlan_mac_packet_types.o
                0x000250d4                wlan_create_deauth_disassoc_frame
 .text.wlan_create_reassoc_assoc_req_frame
                0x0002518c      0x30c ./wlan_mac_high_framework/wlan_mac_packet_types.o
                0x0002518c                wlan_create_reassoc_assoc_req_frame
 .text.wlan_create_data_frame
                0x00025498       0xb8 ./wlan_mac_high_framework/wlan_mac_packet_types.o
                0x00025498                wlan_create_data_frame
 .text.wlan_create_rts_frame
                0x00025550       0x78 ./wlan_mac_high_framework/wlan_mac_packet_types.o
                0x00025550                wlan_create_rts_frame
 .text.wlan_create_cts_frame
                0x000255c8       0x48 ./wlan_mac_high_framework/wlan_mac_packet_types.o
                0x000255c8                wlan_create_cts_frame
 .text.wlan_create_ack_frame
                0x00025610       0x48 ./wlan_mac_high_framework/wlan_mac_packet_types.o
                0x00025610                wlan_create_ack_frame
 .text.queue_init
                0x00025658      0x118 ./wlan_mac_high_framework/wlan_mac_queue.o
                0x00025658                queue_init
 .text.queue_num_queued
                0x00025770       0x30 ./wlan_mac_high_framework/wlan_mac_queue.o
                0x00025770                queue_num_queued
 .text.purge_queue
                0x000257a0      0x180 ./wlan_mac_high_framework/wlan_mac_queue.o
                0x000257a0                purge_queue
 .text.enqueue_after_tail
                0x00025920      0x1b4 ./wlan_mac_high_framework/wlan_mac_queue.o
                0x00025920                enqueue_after_tail
 .text.dequeue_from_head
                0x00025ad4       0xb0 ./wlan_mac_high_framework/wlan_mac_queue.o
                0x00025ad4                dequeue_from_head
 .text.queue_checkout
                0x00025b84       0x50 ./wlan_mac_high_framework/wlan_mac_queue.o
                0x00025b84                queue_checkout
 .text.queue_checkin
                0x00025bd4       0x3c ./wlan_mac_high_framework/wlan_mac_queue.o
                0x00025bd4                queue_checkin
 .text.queue_checkout_list
                0x00025c10       0x30 ./wlan_mac_high_framework/wlan_mac_queue.o
                0x00025c10                queue_checkout_list
 .text.queue_checkin_list
                0x00025c40       0x28 ./wlan_mac_high_framework/wlan_mac_queue.o
                0x00025c40                queue_checkin_list
 .text.transmit_checkin
                0x00025c68       0x90 ./wlan_mac_high_framework/wlan_mac_queue.o
                0x00025c68                transmit_checkin
 .text.wlan_mac_scan_state_transition
                0x00025cf8      0x13c ./wlan_mac_high_framework/wlan_mac_scan.o
                0x00025cf8                wlan_mac_scan_state_transition
 .text.wlan_mac_scan_init
                0x00025e34      0x17c ./wlan_mac_high_framework/wlan_mac_scan.o
                0x00025e34                wlan_mac_scan_init
 .text.wlan_mac_scan_set_tx_probe_request_callback
                0x00025fb0       0x10 ./wlan_mac_high_framework/wlan_mac_scan.o
                0x00025fb0                wlan_mac_scan_set_tx_probe_request_callback
 .text.wlan_mac_scan_set_state_change_callback
                0x00025fc0       0x10 ./wlan_mac_high_framework/wlan_mac_scan.o
                0x00025fc0                wlan_mac_scan_set_state_change_callback
 .text.wlan_mac_scan_get_parameters
                0x00025fd0       0x10 ./wlan_mac_high_framework/wlan_mac_scan.o
                0x00025fd0                wlan_mac_scan_get_parameters
 .text.wlan_mac_scan_start
                0x00025fe0       0x64 ./wlan_mac_high_framework/wlan_mac_scan.o
                0x00025fe0                wlan_mac_scan_start
 .text.wlan_mac_scan_stop
                0x00026044       0xe4 ./wlan_mac_high_framework/wlan_mac_scan.o
                0x00026044                wlan_mac_scan_stop
 .text.wlan_mac_scan_is_scanning
                0x00026128       0x24 ./wlan_mac_high_framework/wlan_mac_scan.o
                0x00026128                wlan_mac_scan_is_scanning
 .text.wlan_mac_scan_get_num_scans
                0x0002614c       0x10 ./wlan_mac_high_framework/wlan_mac_scan.o
                0x0002614c                wlan_mac_scan_get_num_scans
 .text.timer_interrupt_handler
                0x0002615c       0xec ./wlan_mac_high_framework/wlan_mac_schedule.o
                0x0002615c                timer_interrupt_handler
 .text.wlan_mac_schedule_init
                0x00026248      0x154 ./wlan_mac_high_framework/wlan_mac_schedule.o
                0x00026248                wlan_mac_schedule_init
 .text.wlan_mac_schedule_setup_interrupt
                0x0002639c       0x64 ./wlan_mac_high_framework/wlan_mac_schedule.o
                0x0002639c                wlan_mac_schedule_setup_interrupt
 .text.wlan_mac_schedule_event_repeated
                0x00026400      0x348 ./wlan_mac_high_framework/wlan_mac_schedule.o
                0x00026400                wlan_mac_schedule_event_repeated
 .text.wlan_mac_schedule_disable_id
                0x00026748      0x140 ./wlan_mac_high_framework/wlan_mac_schedule.o
                0x00026748                wlan_mac_schedule_disable_id
 .text.wlan_mac_schedule_enable
                0x00026888      0x16c ./wlan_mac_high_framework/wlan_mac_schedule.o
                0x00026888                wlan_mac_schedule_enable
 .text.wlan_mac_remove_schedule
                0x000269f4      0x1ac ./wlan_mac_high_framework/wlan_mac_schedule.o
                0x000269f4                wlan_mac_remove_schedule
 .text.schedule_handler
                0x00026ba0      0x1b8 ./wlan_mac_high_framework/wlan_mac_schedule.o
                0x00026ba0                schedule_handler
 .text.station_info_init
                0x00026d58      0x17c ./wlan_mac_high_framework/wlan_mac_station_info.o
                0x00026d58                station_info_init
 .text.station_info_rx_process_counts
                0x00026ed4       0xb4 ./wlan_mac_high_framework/wlan_mac_station_info.o
                0x00026ed4                station_info_rx_process_counts
 .text.station_info_print
                0x00026f88      0x3a4 ./wlan_mac_high_framework/wlan_mac_station_info.o
                0x00026f88                station_info_print
 .text.station_info_find_by_addr
                0x0002732c       0xb0 ./wlan_mac_high_framework/wlan_mac_station_info.o
                0x0002732c                station_info_find_by_addr
 .text.station_info_create
                0x000273dc      0x280 ./wlan_mac_high_framework/wlan_mac_station_info.o
                0x000273dc                station_info_create
 .text.station_info_postrx_process
                0x0002765c       0xb4 ./wlan_mac_high_framework/wlan_mac_station_info.o
                0x0002765c                station_info_postrx_process
 .text.station_info_posttx_process
                0x00027710       0xb8 ./wlan_mac_high_framework/wlan_mac_station_info.o
                0x00027710                station_info_posttx_process
 .text.station_info_txreport_process
                0x000277c8       0xd4 ./wlan_mac_high_framework/wlan_mac_station_info.o
                0x000277c8                station_info_txreport_process
 .text.txrx_counts_zero_all
                0x0002789c       0x7c ./wlan_mac_high_framework/wlan_mac_station_info.o
                0x0002789c                txrx_counts_zero_all
 .text.station_info_get_list
                0x00027918       0x10 ./wlan_mac_high_framework/wlan_mac_station_info.o
                0x00027918                station_info_get_list
 .text.station_info_add
                0x00027928      0x3ac ./wlan_mac_high_framework/wlan_mac_station_info.o
                0x00027928                station_info_add
 .text.station_info_remove
                0x00027cd4       0xf8 ./wlan_mac_high_framework/wlan_mac_station_info.o
                0x00027cd4                station_info_remove
 .text.station_info_is_member
                0x00027dcc       0x6c ./wlan_mac_high_framework/wlan_mac_station_info.o
                0x00027dcc                station_info_is_member
 .text.wlan_mac_get_default_tx_params
                0x00027e38      0x1c0 ./wlan_mac_high_framework/wlan_mac_station_info.o
                0x00027e38                wlan_mac_get_default_tx_params
 .text.wlan_mac_set_default_tx_params
                0x00027ff8       0xd0 ./wlan_mac_high_framework/wlan_mac_station_info.o
                0x00027ff8                wlan_mac_set_default_tx_params
 .text.wlan_mac_reapply_default_tx_params
                0x000280c8       0xdc ./wlan_mac_high_framework/wlan_mac_station_info.o
                0x000280c8                wlan_mac_reapply_default_tx_params
 .text.eth_init_device_info
                0x000281a4      0x290 ./wlan_mac_high_framework/wlan_exp_ip_udp/wlan_exp_ip_udp_config.o
                0x000281a4                eth_init_device_info
 .text.eth_null_interrupt_callback
                0x00028434        0x8 ./wlan_mac_high_framework/wlan_exp_ip_udp/wlan_exp_ip_udp_eth.o
                0x00028434                eth_null_interrupt_callback
 .text.eth_set_interrupt_enable_callback
                0x0002843c       0x10 ./wlan_mac_high_framework/wlan_exp_ip_udp/wlan_exp_ip_udp_eth.o
                0x0002843c                eth_set_interrupt_enable_callback
 .text.eth_set_interrupt_disable_callback
                0x0002844c       0x10 ./wlan_mac_high_framework/wlan_exp_ip_udp/wlan_exp_ip_udp_eth.o
                0x0002844c                eth_set_interrupt_disable_callback
 .text.eth_init_header
                0x0002845c       0x78 ./wlan_mac_high_framework/wlan_exp_ip_udp/wlan_exp_ip_udp_eth.o
                0x0002845c                eth_init_header
 .text.eth_update_header
                0x000284d4       0x94 ./wlan_mac_high_framework/wlan_exp_ip_udp/wlan_exp_ip_udp_eth.o
                0x000284d4                eth_update_header
 .text.eth_print_err_msg
                0x00028568      0x148 ./wlan_mac_high_framework/wlan_exp_ip_udp/wlan_exp_ip_udp_eth.o
                0x00028568                eth_print_err_msg
 .text.eth_check_dma
                0x000286b0      0x100 ./wlan_mac_high_framework/wlan_exp_ip_udp/wlan_exp_ip_udp_eth.o
                0x000286b0                eth_check_dma
 .text.eth_init_device
                0x000287b0      0x13c ./wlan_mac_high_framework/wlan_exp_ip_udp/wlan_exp_ip_udp_eth.o
                0x000287b0                eth_init_device
 .text.eth_init_dma
                0x000288ec      0x30c ./wlan_mac_high_framework/wlan_exp_ip_udp/wlan_exp_ip_udp_eth.o
                0x000288ec                eth_init_dma
 .text.eth_free_recv_buffers.part.1.constprop.3
                0x00028bf8      0x134 ./wlan_mac_high_framework/wlan_exp_ip_udp/wlan_exp_ip_udp_eth.o
 .text.eth_start_device
                0x00028d2c       0xf8 ./wlan_mac_high_framework/wlan_exp_ip_udp/wlan_exp_ip_udp_eth.o
                0x00028d2c                eth_start_device
 .text.eth_set_ip_addr
                0x00028e24      0x100 ./wlan_mac_high_framework/wlan_exp_ip_udp/wlan_exp_ip_udp_eth.o
                0x00028e24                eth_set_ip_addr
 .text.eth_set_mac_operating_speed
                0x00028f24       0xa4 ./wlan_mac_high_framework/wlan_exp_ip_udp/wlan_exp_ip_udp_eth.o
                0x00028f24                eth_set_mac_operating_speed
 .text.eth_write_phy_reg
                0x00028fc8       0xa4 ./wlan_mac_high_framework/wlan_exp_ip_udp/wlan_exp_ip_udp_eth.o
                0x00028fc8                eth_write_phy_reg
 .text.eth_read_phy_reg
                0x0002906c       0xa4 ./wlan_mac_high_framework/wlan_exp_ip_udp/wlan_exp_ip_udp_eth.o
                0x0002906c                eth_read_phy_reg
 .text.eth_free_recv_buffers
                0x00029110      0x1b0 ./wlan_mac_high_framework/wlan_exp_ip_udp/wlan_exp_ip_udp_eth.o
                0x00029110                eth_free_recv_buffers
 .text.eth_init
                0x000292c0      0x29c ./wlan_mac_high_framework/wlan_exp_ip_udp/wlan_exp_ip_udp_eth.o
                0x000292c0                eth_init
 .text.eth_recv_frame
                0x0002955c      0x2dc ./wlan_mac_high_framework/wlan_exp_ip_udp/wlan_exp_ip_udp_eth.o
                0x0002955c                eth_recv_frame
 .text.eth_send_frame
                0x00029838      0x630 ./wlan_mac_high_framework/wlan_exp_ip_udp/wlan_exp_ip_udp_eth.o
                0x00029838                eth_send_frame
 .text.wlan_exp_ip_udp_init
                0x00029e68      0x1fc ./wlan_mac_high_framework/wlan_exp_ip_udp/wlan_exp_ip_udp_init.o
                0x00029e68                wlan_exp_ip_udp_init
 .text.ipv4_init
                0x0002a064       0x10 ./wlan_mac_high_framework/wlan_exp_ip_udp/wlan_exp_ip_udp_ip_udp.o
                0x0002a064                ipv4_init
 .text.ipv4_init_header
                0x0002a074       0x48 ./wlan_mac_high_framework/wlan_exp_ip_udp/wlan_exp_ip_udp_ip_udp.o
                0x0002a074                ipv4_init_header
 .text.ipv4_update_header
                0x0002a0bc      0x1c4 ./wlan_mac_high_framework/wlan_exp_ip_udp/wlan_exp_ip_udp_ip_udp.o
                0x0002a0bc                ipv4_update_header
 .text.udp_init_header
                0x0002a280       0x30 ./wlan_mac_high_framework/wlan_exp_ip_udp/wlan_exp_ip_udp_ip_udp.o
                0x0002a280                udp_init_header
 .text.udp_update_header
                0x0002a2b0       0x38 ./wlan_mac_high_framework/wlan_exp_ip_udp/wlan_exp_ip_udp_ip_udp.o
                0x0002a2b0                udp_update_header
 .text.arp_reply
                0x0002a2e8      0x338 ./wlan_mac_high_framework/wlan_exp_ip_udp/wlan_exp_ip_udp_ip_udp.o
                0x0002a2e8                arp_reply
 .text.arp_get_hw_addr
                0x0002a620      0x548 ./wlan_mac_high_framework/wlan_exp_ip_udp/wlan_exp_ip_udp_ip_udp.o
                0x0002a620                arp_get_hw_addr
 .text.arp_update_cache
                0x0002ab68      0x7a0 ./wlan_mac_high_framework/wlan_exp_ip_udp/wlan_exp_ip_udp_ip_udp.o
                0x0002ab68                arp_update_cache
 .text.arp_process_packet
                0x0002b308      0x100 ./wlan_mac_high_framework/wlan_exp_ip_udp/wlan_exp_ip_udp_ip_udp.o
                0x0002b308                arp_process_packet
 .text.imcp_echo_reply
                0x0002b408      0x400 ./wlan_mac_high_framework/wlan_exp_ip_udp/wlan_exp_ip_udp_ip_udp.o
                0x0002b408                imcp_echo_reply
 .text.ipv4_process_packet
                0x0002b808      0x1a4 ./wlan_mac_high_framework/wlan_exp_ip_udp/wlan_exp_ip_udp_ip_udp.o
                0x0002b808                ipv4_process_packet
 .text.socket_socket
                0x0002b9ac       0x9c ./wlan_mac_high_framework/wlan_exp_ip_udp/wlan_exp_ip_udp_socket.o
                0x0002b9ac                socket_socket
 .text.socket_bind_eth
                0x0002ba48       0xf8 ./wlan_mac_high_framework/wlan_exp_ip_udp/wlan_exp_ip_udp_socket.o
                0x0002ba48                socket_bind_eth
 .text.socket_close
                0x0002bb40       0x3c ./wlan_mac_high_framework/wlan_exp_ip_udp/wlan_exp_ip_udp_socket.o
                0x0002bb40                socket_close
 .text.socket_sendto
                0x0002bb7c      0x15c ./wlan_mac_high_framework/wlan_exp_ip_udp/wlan_exp_ip_udp_socket.o
                0x0002bb7c                socket_sendto
 .text.socket_sendto_raw
                0x0002bcd8       0x64 ./wlan_mac_high_framework/wlan_exp_ip_udp/wlan_exp_ip_udp_socket.o
                0x0002bcd8                socket_sendto_raw
 .text.socket_recvfrom_eth
                0x0002bd3c      0x214 ./wlan_mac_high_framework/wlan_exp_ip_udp/wlan_exp_ip_udp_socket.o
                0x0002bd3c                socket_recvfrom_eth
 .text.socket_alloc_send_buffer
                0x0002bf50       0xa4 ./wlan_mac_high_framework/wlan_exp_ip_udp/wlan_exp_ip_udp_socket.o
                0x0002bf50                socket_alloc_send_buffer
 .text.socket_free_send_buffer
                0x0002bff4       0x24 ./wlan_mac_high_framework/wlan_exp_ip_udp/wlan_exp_ip_udp_socket.o
                0x0002bff4                socket_free_send_buffer
 .text.socket_free_recv_buffer
                0x0002c018       0x54 ./wlan_mac_high_framework/wlan_exp_ip_udp/wlan_exp_ip_udp_socket.o
                0x0002c018                socket_free_recv_buffer
 .text.socket_find_index_by_eth
                0x0002c06c      0x124 ./wlan_mac_high_framework/wlan_exp_ip_udp/wlan_exp_ip_udp_socket.o
                0x0002c06c                socket_find_index_by_eth
 .text.socket_get_eth_dev_num
                0x0002c190       0x38 ./wlan_mac_high_framework/wlan_exp_ip_udp/wlan_exp_ip_udp_socket.o
                0x0002c190                socket_get_eth_dev_num
 .text.socket_get_wlan_exp_ip_udp_header
                0x0002c1c8       0x34 ./wlan_mac_high_framework/wlan_exp_ip_udp/wlan_exp_ip_udp_socket.o
                0x0002c1c8                socket_get_wlan_exp_ip_udp_header
 .text.wlan_mac_common_malloc_init
                0x0002c1fc       0x70 ./wlan_mac_common_framework/wlan_mac_common.o
                0x0002c1fc                wlan_mac_common_malloc_init
 .text.wlan_null_callback
                0x0002c26c        0x8 ./wlan_mac_common_framework/wlan_mac_common.o
                0x0002c26c                wlan_null_callback
 .text.wlan_verify_channel
                0x0002c274       0x28 ./wlan_mac_common_framework/wlan_mac_common.o
                0x0002c274                wlan_verify_channel
 .text.init_mac_hw_info
                0x0002c29c       0x60 ./wlan_mac_common_framework/wlan_mac_common.o
                0x0002c29c                init_mac_hw_info
 .text.wlan_mac_time_to_hr_min_sec
                0x0002c2fc       0xe8 ./wlan_mac_common_framework/wlan_mac_common.o
                0x0002c2fc                wlan_mac_time_to_hr_min_sec
 .text.get_mac_hw_info
                0x0002c3e4       0x10 ./wlan_mac_common_framework/wlan_mac_common.o
                0x0002c3e4                get_mac_hw_info
 .text.get_mac_hw_addr_wlan
                0x0002c3f4       0x10 ./wlan_mac_common_framework/wlan_mac_common.o
                0x0002c3f4                get_mac_hw_addr_wlan
 .text.dl_list_init
                0x0002c404       0x44 ./wlan_mac_common_framework/wlan_mac_dl_list.o
                0x0002c404                dl_list_init
 .text.dl_entry_insertBefore
                0x0002c448       0x64 ./wlan_mac_common_framework/wlan_mac_dl_list.o
                0x0002c448                dl_entry_insertBefore
 .text.dl_entry_insertBeginning
                0x0002c4ac       0x94 ./wlan_mac_common_framework/wlan_mac_dl_list.o
                0x0002c4ac                dl_entry_insertBeginning
 .text.dl_entry_insertEnd
                0x0002c540       0xc8 ./wlan_mac_common_framework/wlan_mac_dl_list.o
                0x0002c540                dl_entry_insertEnd
 .text.dl_entry_move
                0x0002c608       0xac ./wlan_mac_common_framework/wlan_mac_dl_list.o
                0x0002c608                dl_entry_move
 .text.dl_entry_remove
                0x0002c6b4       0x98 ./wlan_mac_common_framework/wlan_mac_dl_list.o
                0x0002c6b4                dl_entry_remove
 .text.init_mailbox
                0x0002c74c       0x98 ./wlan_mac_common_framework/wlan_mac_mailbox_util.o
                0x0002c74c                init_mailbox
 .text.write_mailbox_msg
                0x0002c7e4       0xb4 ./wlan_mac_common_framework/wlan_mac_mailbox_util.o
                0x0002c7e4                write_mailbox_msg
 .text.read_mailbox_msg
                0x0002c898      0x124 ./wlan_mac_common_framework/wlan_mac_mailbox_util.o
                0x0002c898                read_mailbox_msg
 .text.init_pkt_buf
                0x0002c9bc      0x3f8 ./wlan_mac_common_framework/wlan_mac_pkt_buf_util.o
                0x0002c9bc                init_pkt_buf
 .text.lock_tx_pkt_buf
                0x0002cdb4       0x4c ./wlan_mac_common_framework/wlan_mac_pkt_buf_util.o
                0x0002cdb4                lock_tx_pkt_buf
 .text.lock_rx_pkt_buf
                0x0002ce00       0x50 ./wlan_mac_common_framework/wlan_mac_pkt_buf_util.o
                0x0002ce00                lock_rx_pkt_buf
 .text.force_lock_tx_pkt_buf
                0x0002ce50       0xb0 ./wlan_mac_common_framework/wlan_mac_pkt_buf_util.o
                0x0002ce50                force_lock_tx_pkt_buf
 .text.unlock_tx_pkt_buf
                0x0002cf00       0x70 ./wlan_mac_common_framework/wlan_mac_pkt_buf_util.o
                0x0002cf00                unlock_tx_pkt_buf
 .text.unlock_rx_pkt_buf
                0x0002cf70       0x50 ./wlan_mac_common_framework/wlan_mac_pkt_buf_util.o
                0x0002cf70                unlock_rx_pkt_buf
 .text.wlan_exp_process_node_cmd
                0x0002cfc0      0x6e4 ./src/wlan_exp_node_sta.o
                0x0002cfc0                wlan_exp_process_node_cmd
 .text.active_network_info_getter
                0x0002d6a4       0x10 ./src/wlan_mac_sta.o
                0x0002d6a4                active_network_info_getter
 .text.sta_set_beacon_ts_update_mode
                0x0002d6b4       0x60 ./src/wlan_mac_sta.o
                0x0002d6b4                sta_set_beacon_ts_update_mode
 .text.purge_all_data_tx_queue
                0x0002d714       0x2c ./src/wlan_mac_sta.o
                0x0002d714                purge_all_data_tx_queue
 .text.configure_bss
                0x0002d740      0x71c ./src/wlan_mac_sta.o
                0x0002d740                configure_bss
 .text.ltg_event
                0x0002de5c      0x194 ./src/wlan_mac_sta.o
                0x0002de5c                ltg_event
 .text.mpdu_rx_process
                0x0002dff0      0x424 ./src/wlan_mac_sta.o
                0x0002dff0                mpdu_rx_process
 .text.ethernet_receive
                0x0002e414      0x110 ./src/wlan_mac_sta.o
                0x0002e414                ethernet_receive
 .text.poll_tx_queues
                0x0002e524      0x134 ./src/wlan_mac_sta.o
                0x0002e524                poll_tx_queues
 .text.send_probe_req
                0x0002e658       0xb8 ./src/wlan_mac_sta.o
                0x0002e658                send_probe_req
 .text.wlan_exp_process_user_cmd
                0x0002e710       0x64 ./src/wlan_mac_sta.o
                0x0002e710                wlan_exp_process_user_cmd
 .text.process_scan_state_change
                0x0002e774       0x88 ./src/wlan_mac_sta.o
                0x0002e774                process_scan_state_change
 .text.startup.main
                0x0002e7fc      0x558 ./src/wlan_mac_sta.o
                0x0002e7fc                main
 .text.sta_disassociate
                0x0002ed54      0x118 ./src/wlan_mac_sta.o
                0x0002ed54                sta_disassociate
 .text.get_network_member_list
                0x0002ee6c       0x18 ./src/wlan_mac_sta.o
                0x0002ee6c                get_network_member_list
 .text.wlan_mac_sta_join_init
                0x0002ee84       0x6c ./src/wlan_mac_sta_join.o
                0x0002ee84                wlan_mac_sta_join_init
 .text.wlan_mac_sta_get_join_parameters
                0x0002eef0       0x10 ./src/wlan_mac_sta_join.o
                0x0002eef0                wlan_mac_sta_get_join_parameters
 .text.wlan_mac_sta_get_attempt_network_info
                0x0002ef00       0x24 ./src/wlan_mac_sta_join.o
                0x0002ef00                wlan_mac_sta_get_attempt_network_info
 .text.wlan_mac_sta_is_joining
                0x0002ef24       0x14 ./src/wlan_mac_sta_join.o
                0x0002ef24                wlan_mac_sta_is_joining
 .text.wlan_mac_sta_join_return_to_idle
                0x0002ef38      0x108 ./src/wlan_mac_sta_join.o
                0x0002ef38                wlan_mac_sta_join_return_to_idle
 .text.wlan_mac_sta_join_bss_attempt_poll
                0x0002f040      0x2bc ./src/wlan_mac_sta_join.o
                0x0002f040                wlan_mac_sta_join_bss_attempt_poll
 .text.wlan_mac_sta_successfully_associated
                0x0002f2fc       0x7c ./src/wlan_mac_sta_join.o
                0x0002f2fc                wlan_mac_sta_successfully_associated
 .text.wlan_mac_sta_successfully_authenticated
                0x0002f378       0x64 ./src/wlan_mac_sta_join.o
                0x0002f378                wlan_mac_sta_successfully_authenticated
 .text.start_join_attempt
                0x0002f3dc      0x100 ./src/wlan_mac_sta_join.o
                0x0002f3dc                start_join_attempt
 .text.wlan_mac_sta_join_bss_search_poll
                0x0002f4dc       0xe8 ./src/wlan_mac_sta_join.o
                0x0002f4dc                wlan_mac_sta_join_bss_search_poll
 .text.wlan_mac_sta_join
                0x0002f5c4      0x17c ./src/wlan_mac_sta_join.o
                0x0002f5c4                wlan_mac_sta_join
 .text.print_station_status
                0x0002f740      0x154 ./src/wlan_mac_sta_uart_menu.o
                0x0002f740                print_station_status
 .text.check_join_status
                0x0002f894      0x158 ./src/wlan_mac_sta_uart_menu.o
                0x0002f894                check_join_status
 .text.uart_rx  0x0002f9ec      0x664 ./src/wlan_mac_sta_uart_menu.o
                0x0002f9ec                uart_rx
 *(.gnu.linkonce.t.*)

.wlan_exp_eth_buffers_section
                0xc0000000     0xb8c0
                0xc0000000                __wlan_exp_eth_buffers_section_start = .
 *(.ip_udp_eth_buffers)
 .ip_udp_eth_buffers
                0xc0000000     0x6d00 ./wlan_mac_high_framework/wlan_exp_ip_udp/wlan_exp_ip_udp_config.o
                0xc0000000                ETH_1_recv_buffer
                0xc00069c0                ETH_1_tx_bd_space
                0xc0006c40                ETH_1_rx_bd_space
 .ip_udp_eth_buffers
                0xc0006d00     0x47c0 ./wlan_mac_high_framework/wlan_exp_ip_udp/wlan_exp_ip_udp_init.o
                0xc0006d00                ETH_headers
                0xc0006e00                ETH_dummy_frame
                0xc0006e40                ETH_send_buffer
 *(.wlan_exp_eth_buffers)
 .wlan_exp_eth_buffers
                0xc000b4c0      0x400 ./wlan_mac_high_framework/wlan_exp_node.o
                0xc000b4c0                ETH_header_buffer
                0xc000b8c0                __wlan_exp_eth_buffers_section_end = .

.init           0x00030050       0x3c
 *(.init)
 .init          0x00030050       0x18 c:/xilinx/14.4/ise_ds/edk/gnu/microblaze/nt64/bin/../lib/gcc/microblaze-xilinx-elf/4.6.2/bs/m/le/crti.o
                0x00030050                __init
 .init          0x00030068        0xc c:/xilinx/14.4/ise_ds/edk/gnu/microblaze/nt64/bin/../lib/gcc/microblaze-xilinx-elf/4.6.2/bs/m/le/crtbegin.o
 .init          0x00030074        0xc c:/xilinx/14.4/ise_ds/edk/gnu/microblaze/nt64/bin/../lib/gcc/microblaze-xilinx-elf/4.6.2/bs/m/le/crtend.o
 .init          0x00030080        0xc c:/xilinx/14.4/ise_ds/edk/gnu/microblaze/nt64/bin/../lib/gcc/microblaze-xilinx-elf/4.6.2/bs/m/le/crtn.o

.fini           0x0003008c       0x20
 *(.fini)
 .fini          0x0003008c        0x8 c:/xilinx/14.4/ise_ds/edk/gnu/microblaze/nt64/bin/../lib/gcc/microblaze-xilinx-elf/4.6.2/bs/m/le/crti.o
                0x0003008c                __fini
 .fini          0x00030094        0xc c:/xilinx/14.4/ise_ds/edk/gnu/microblaze/nt64/bin/../lib/gcc/microblaze-xilinx-elf/4.6.2/bs/m/le/crtbegin.o
 .fini          0x000300a0        0xc c:/xilinx/14.4/ise_ds/edk/gnu/microblaze/nt64/bin/../lib/gcc/microblaze-xilinx-elf/4.6.2/bs/m/le/crtn.o

.ctors          0x000300ac        0x8
                0x000300ac                __CTOR_LIST__ = .
                0x000300ac                ___CTORS_LIST___ = .
 *crtbegin.o(.ctors)
 .ctors         0x000300ac        0x4 c:/xilinx/14.4/ise_ds/edk/gnu/microblaze/nt64/bin/../lib/gcc/microblaze-xilinx-elf/4.6.2/bs/m/le/crtbegin.o
 *(EXCLUDE_FILE(*crtend.o) .ctors)
 *(SORT(.ctors.*))
 *(.ctors)
 .ctors         0x000300b0        0x4 c:/xilinx/14.4/ise_ds/edk/gnu/microblaze/nt64/bin/../lib/gcc/microblaze-xilinx-elf/4.6.2/bs/m/le/crtend.o
                0x000300b4                __CTOR_END__ = .
                0x000300b4                ___CTORS_END___ = .

.dtors          0x000300b4        0x8
                0x000300b4                __DTOR_LIST__ = .
                0x000300b4                ___DTORS_LIST___ = .
 *crtbegin.o(.dtors)
 .dtors         0x000300b4        0x4 c:/xilinx/14.4/ise_ds/edk/gnu/microblaze/nt64/bin/../lib/gcc/microblaze-xilinx-elf/4.6.2/bs/m/le/crtbegin.o
 *(EXCLUDE_FILE(*crtend.o) .dtors)
 *(SORT(.dtors.*))
 *(.dtors)
 .dtors         0x000300b8        0x4 c:/xilinx/14.4/ise_ds/edk/gnu/microblaze/nt64/bin/../lib/gcc/microblaze-xilinx-elf/4.6.2/bs/m/le/crtend.o
                0x000300b8                __DTOR_END__
                0x000300bc                PROVIDE (__DTOR_END__, .)
                0x000300bc                PROVIDE (___DTORS_END___, .)

.rodata         0x000300bc     0x52fc
                0x000300bc                __rodata_start = .
 *(.rodata)
 .rodata        0x000300bc      0x4a0 ./wlan_platform_high/w3_eth.o
 .rodata        0x0003055c      0x1af ./wlan_platform_high/w3_high.o
 *fill*         0x0003070b        0x1 00
 .rodata        0x0003070c       0x45 ./wlan_platform_high/w3_high_userio.o
 *fill*         0x00030751        0x3 00
 .rodata        0x00030754       0x45 ./wlan_platform_high/w3_uart.o
 *fill*         0x00030799        0x3 00
 .rodata        0x0003079c      0x18d ./wlan_mac_high_framework/wlan_exp_common.o
 *fill*         0x00030929        0x3 00
 .rodata        0x0003092c      0xaeb ./wlan_mac_high_framework/wlan_exp_node.o
 *fill*         0x00031417        0x1 00
 .rodata        0x00031418      0x464 ./wlan_mac_high_framework/wlan_exp_transport.o
 .rodata        0x0003187c       0xe1 ./wlan_mac_high_framework/wlan_mac_entries.o
 *fill*         0x0003195d        0x3 00
 .rodata        0x00031960       0xb0 ./wlan_mac_high_framework/wlan_mac_eth_util.o
 .rodata        0x00031a10      0x226 ./wlan_mac_high_framework/wlan_mac_event_log.o
 *fill*         0x00031c36        0x2 00
 .rodata        0x00031c38      0xcb7 ./wlan_mac_high_framework/wlan_mac_high.o
 *fill*         0x000328ef        0x1 00
 .rodata        0x000328f0      0x2d1 ./wlan_mac_high_framework/wlan_mac_ltg.o
 *fill*         0x00032bc1        0x3 00
 .rodata        0x00032bc4      0x1d7 ./wlan_mac_high_framework/wlan_mac_network_info.o
 *fill*         0x00032d9b        0x1 00
 .rodata        0x00032d9c      0x169 ./wlan_mac_high_framework/wlan_mac_queue.o
 *fill*         0x00032f05        0x3 00
 .rodata        0x00032f08        0x1 ./wlan_mac_high_framework/wlan_mac_scan.o
 *fill*         0x00032f09        0x3 00
 .rodata        0x00032f0c       0xe9 ./wlan_mac_high_framework/wlan_mac_schedule.o
 *fill*         0x00032ff5        0x3 00
 .rodata        0x00032ff8      0x53d ./wlan_mac_high_framework/wlan_mac_station_info.o
 *fill*         0x00033535        0x3 00
 .rodata        0x00033538       0x3e ./wlan_mac_high_framework/wlan_exp_ip_udp/wlan_exp_ip_udp_config.o
 *fill*         0x00033576        0x2 00
 .rodata        0x00033578      0x1dd ./wlan_mac_high_framework/wlan_exp_ip_udp/wlan_exp_ip_udp_eth.o
 *fill*         0x00033755        0x3 00
 .rodata        0x00033758      0x106 ./wlan_mac_high_framework/wlan_exp_ip_udp/wlan_exp_ip_udp_ip_udp.o
 *fill*         0x0003385e        0x2 00
 .rodata        0x00033860       0x41 ./wlan_mac_high_framework/wlan_exp_ip_udp/wlan_exp_ip_udp_socket.o
 *fill*         0x000338a1        0x3 00
 .rodata        0x000338a4       0xcd ./wlan_mac_common_framework/wlan_mac_dl_list.o
 *fill*         0x00033971        0x3 00
 .rodata        0x00033974      0x1a4 ./src/wlan_exp_node_sta.o
 .rodata        0x00033b18      0x4ad ./src/wlan_mac_sta.o
 *fill*         0x00033fc5        0x3 00
 .rodata        0x00033fc8      0x163 ./src/wlan_mac_sta_join.o
 *fill*         0x0003412b        0x1 00
 .rodata        0x0003412c      0x2bb ./src/wlan_mac_sta_uart_menu.o
 *fill*         0x000343e7        0x1 00
 .rodata        0x000343e8      0x164 ../../wlan_bsp_cpu_high/mb_high/lib\libxil.a(xil_printf.o)
 .rodata        0x0003454c       0xc7 ../../wlan_bsp_cpu_high/mb_high/lib\libxil.a(xaxicdma.o)
 *fill*         0x00034613        0x1 00
 .rodata        0x00034614      0x12f ../../wlan_bsp_cpu_high/mb_high/lib\libxil.a(xaxidma_bd.o)
 *fill*         0x00034743        0x1 00
 .rodata        0x00034744       0x6b ../../wlan_bsp_cpu_high/mb_high/lib\libxil.a(xaxidma_bdring.o)
 *fill*         0x000347af        0x1 00
 .rodata        0x000347b0        0xf ../../wlan_bsp_cpu_high/mb_high/lib\libxil.a(xaxiethernet.o)
 *fill*         0x000347bf        0x1 00
 .rodata        0x000347c0        0x8 ../../wlan_bsp_cpu_high/mb_high/lib\libxil.a(xintc.o)
 .rodata        0x000347c8       0x10 ../../wlan_bsp_cpu_high/mb_high/lib\libxil.a(xintc_options.o)
 .rodata        0x000347d8        0x8 ../../wlan_bsp_cpu_high/mb_high/lib\libxil.a(xgpio.o)
 .rodata        0x000347e0        0xd ../../wlan_bsp_cpu_high/mb_high/lib\libxil.a(xgpio_intr.o)
 *fill*         0x000347ed        0x3 00
 .rodata        0x000347f0        0xe ../../wlan_bsp_cpu_high/mb_high/lib\libxil.a(xgpio_sinit.o)
 *fill*         0x000347fe        0x2 00
 .rodata        0x00034800        0xa ../../wlan_bsp_cpu_high/mb_high/lib\libxil.a(xtmrctr.o)
 *fill*         0x0003480a        0x2 00
 .rodata        0x0003480c        0xf ../../wlan_bsp_cpu_high/mb_high/lib\libxil.a(xtmrctr_intr.o)
 *fill*         0x0003481b        0x1 00
 .rodata        0x0003481c       0x4c ../../wlan_bsp_cpu_high/mb_high/lib\libxil.a(xtmrctr_options.o)
 .rodata        0x00034868        0xc ../../wlan_bsp_cpu_high/mb_high/lib\libxil.a(xuartlite.o)
 .rodata        0x00034874       0x11 ../../wlan_bsp_cpu_high/mb_high/lib\libxil.a(xuartlite_intr.o)
 *fill*         0x00034885        0x3 00
 .rodata        0x00034888       0x12 ../../wlan_bsp_cpu_high/mb_high/lib\libxil.a(xuartlite_sinit.o)
 *fill*         0x0003489a        0x2 00
 .rodata        0x0003489c       0x12 ../../wlan_bsp_cpu_high/mb_high/lib\libxil.a(xuartlite_stats.o)
 *fill*         0x000348ae        0x2 00
 .rodata        0x000348b0        0x8 ../../wlan_bsp_cpu_high/mb_high/lib\libxil.a(xmbox.o)
 .rodata        0x000348b8        0x9 ../../wlan_bsp_cpu_high/mb_high/lib\libxil.a(xmutex.o)
 *fill*         0x000348c1        0x3 00
 .rodata        0x000348c4      0x133 ../../wlan_bsp_cpu_high/mb_high/lib\libxil.a(w3_iic_eeprom.o)
 *fill*         0x000349f7        0x1 00
 .rodata        0x000349f8       0xeb ../../wlan_bsp_cpu_high/mb_high/lib\libxil.a(xaxicdma_bd.o)
 *fill*         0x00034ae3        0x1 00
 .rodata        0x00034ae4       0x14 c:/xilinx/14.4/ise_ds/edk/gnu/microblaze/nt64/bin/../lib/gcc/microblaze-xilinx-elf/4.6.2/bs/m/le\libgcc.a(_thenan_df.o)
                0x00034ae4                __thenan_df
 .rodata        0x00034af8      0x100 c:/xilinx/14.4/ise_ds/edk/gnu/microblaze/nt64/bin/../lib/gcc/microblaze-xilinx-elf/4.6.2/bs/m/le\libgcc.a(_clz.o)
                0x00034af8                __clz_tab
 .rodata        0x00034bf8      0x284 ../../wlan_bsp_cpu_high/mb_high/lib\libc.a(lib_a-ctype_.o)
                0x00034bf8                _ctype_
 .rodata        0x00034e7c        0x6 ../../wlan_bsp_cpu_high/mb_high/lib\libc.a(lib_a-impure.o)
                0x00034e7c                _global_impure_ptr
 *fill*         0x00034e82        0x2 00
 .rodata        0x00034e84       0x21 ../../wlan_bsp_cpu_high/mb_high/lib\libc.a(lib_a-mstats.o)
 *fill*         0x00034ea5        0x3 00
 .rodata        0x00034ea8       0x60 ../../wlan_bsp_cpu_high/mb_high/lib\libc.a(lib_a-findfp.o)
                0x00034ea8                __sf_fake_stderr
                0x00034ec8                __sf_fake_stdout
                0x00034ee8                __sf_fake_stdin
 .rodata        0x00034f08       0x51 ../../wlan_bsp_cpu_high/mb_high/lib\libc.a(lib_a-mallstatsr.o)
 *fill*         0x00034f59        0x3 00
 .rodata        0x00034f5c      0x1b4 ../../wlan_bsp_cpu_high/mb_high/lib\libc.a(lib_a-vfiprintf.o)
 .rodata        0x00035110       0x12 ../../wlan_bsp_cpu_high/mb_high/lib\libc.a(lib_a-locale.o)
 *(.rodata.*)
 *fill*         0x00035122        0x2 00
 .rodata.w3_platform_high_dev_info
                0x00035124       0x44 ./wlan_platform_high/w3_high.o
 .rodata.platform_common_dev_info
                0x00035168       0x20 ./wlan_platform_common/w3_common.o
 .rodata.serial_number_prefix
                0x00035188        0x5 ./wlan_platform_common/w3_common.o
 *fill*         0x0003518d        0x3 00
 .rodata.CSWTCH.5
                0x00035190       0x10 ./wlan_platform_common/w3_userio_util.o
 .rodata.CSWTCH.53
                0x000351a0        0xc ./wlan_mac_high_framework/wlan_exp_node.o
 .rodata.CSWTCH.20
                0x000351ac       0x44 ./wlan_mac_high_framework/wlan_mac_entries.o
 .rodata.wlan_mac_high_process_ipc_msg
                0x000351f0       0x58 ./wlan_mac_high_framework/wlan_mac_high.o
 .rodata.zero_addr
                0x00035248        0x6 ./wlan_mac_high_framework/wlan_mac_high.o
                0x00035248                zero_addr
 *fill*         0x0003524e        0x2 00
 .rodata.bcast_addr
                0x00035250        0x6 ./wlan_mac_high_framework/wlan_mac_high.o
                0x00035250                bcast_addr
 *fill*         0x00035256        0x2 00
 .rodata.default_channel_selections
                0x00035258        0xf ./wlan_mac_high_framework/wlan_mac_scan.o
                0x00035258                default_channel_selections
 *fill*         0x00035267        0x1 00
 .rodata.CSWTCH.1
                0x00035268       0x30 ./wlan_mac_common_framework/wlan_mac_common.o
 .rodata.uart_rx
                0x00035298      0x120 ./src/wlan_mac_sta_uart_menu.o
 *(.gnu.linkonce.r.*)
                0x000353b8                __rodata_end = .

.rela.dyn       0x000353b8        0x0
 .rela.text     0x00000000        0x0 c:/xilinx/14.4/ise_ds/edk/gnu/microblaze/nt64/bin/../lib/gcc/microblaze-xilinx-elf/4.6.2/../../../../microblaze-xilinx-elf/lib/bs/m/le/crt0.o
 .rela.vectors.sw_exception
                0x00000000        0x0 c:/xilinx/14.4/ise_ds/edk/gnu/microblaze/nt64/bin/../lib/gcc/microblaze-xilinx-elf/4.6.2/../../../../microblaze-xilinx-elf/lib/bs/m/le/crt0.o
 .rela.vectors.interrupt
                0x00000000        0x0 c:/xilinx/14.4/ise_ds/edk/gnu/microblaze/nt64/bin/../lib/gcc/microblaze-xilinx-elf/4.6.2/../../../../microblaze-xilinx-elf/lib/bs/m/le/crt0.o
 .rela.vectors.hw_exception
                0x00000000        0x0 c:/xilinx/14.4/ise_ds/edk/gnu/microblaze/nt64/bin/../lib/gcc/microblaze-xilinx-elf/4.6.2/../../../../microblaze-xilinx-elf/lib/bs/m/le/crt0.o
 .rela.text.wlan_platform_ethernet_send
                0x00000000        0x0 c:/xilinx/14.4/ise_ds/edk/gnu/microblaze/nt64/bin/../lib/gcc/microblaze-xilinx-elf/4.6.2/../../../../microblaze-xilinx-elf/lib/bs/m/le/crt0.o
 .rela.text.w3_wlan_platform_ethernet_setup_interrupt
                0x00000000        0x0 c:/xilinx/14.4/ise_ds/edk/gnu/microblaze/nt64/bin/../lib/gcc/microblaze-xilinx-elf/4.6.2/../../../../microblaze-xilinx-elf/lib/bs/m/le/crt0.o
 .rela.text._wlan_eth_dma_init
                0x00000000        0x0 c:/xilinx/14.4/ise_ds/edk/gnu/microblaze/nt64/bin/../lib/gcc/microblaze-xilinx-elf/4.6.2/../../../../microblaze-xilinx-elf/lib/bs/m/le/crt0.o
 .rela.text.w3_wlan_platform_ethernet_init
                0x00000000        0x0 c:/xilinx/14.4/ise_ds/edk/gnu/microblaze/nt64/bin/../lib/gcc/microblaze-xilinx-elf/4.6.2/../../../../microblaze-xilinx-elf/lib/bs/m/le/crt0.o
 .rela.text._init_rx_bd
                0x00000000        0x0 c:/xilinx/14.4/ise_ds/edk/gnu/microblaze/nt64/bin/../lib/gcc/microblaze-xilinx-elf/4.6.2/../../../../microblaze-xilinx-elf/lib/bs/m/le/crt0.o
 .rela.text._wlan_eth_dma_update
                0x00000000        0x0 c:/xilinx/14.4/ise_ds/edk/gnu/microblaze/nt64/bin/../lib/gcc/microblaze-xilinx-elf/4.6.2/../../../../microblaze-xilinx-elf/lib/bs/m/le/crt0.o
 .rela.text._wlan_process_all_eth_pkts
                0x00000000        0x0 c:/xilinx/14.4/ise_ds/edk/gnu/microblaze/nt64/bin/../lib/gcc/microblaze-xilinx-elf/4.6.2/../../../../microblaze-xilinx-elf/lib/bs/m/le/crt0.o
 .rela.text._eth_rx_interrupt_handler
                0x00000000        0x0 c:/xilinx/14.4/ise_ds/edk/gnu/microblaze/nt64/bin/../lib/gcc/microblaze-xilinx-elf/4.6.2/../../../../microblaze-xilinx-elf/lib/bs/m/le/crt0.o
 .rela.text.wlan_platform_high_init
                0x00000000        0x0 c:/xilinx/14.4/ise_ds/edk/gnu/microblaze/nt64/bin/../lib/gcc/microblaze-xilinx-elf/4.6.2/../../../../microblaze-xilinx-elf/lib/bs/m/le/crt0.o
 .rela.text.wlan_platform_high_userio_disp_status
                0x00000000        0x0 c:/xilinx/14.4/ise_ds/edk/gnu/microblaze/nt64/bin/../lib/gcc/microblaze-xilinx-elf/4.6.2/../../../../microblaze-xilinx-elf/lib/bs/m/le/crt0.o
 .rela.text.wlan_platform_wlan_exp_process_node_cmd
                0x00000000        0x0 c:/xilinx/14.4/ise_ds/edk/gnu/microblaze/nt64/bin/../lib/gcc/microblaze-xilinx-elf/4.6.2/../../../../microblaze-xilinx-elf/lib/bs/m/le/crt0.o
 .rela.text._w3_high_userio_gpio_handler
                0x00000000        0x0 c:/xilinx/14.4/ise_ds/edk/gnu/microblaze/nt64/bin/../lib/gcc/microblaze-xilinx-elf/4.6.2/../../../../microblaze-xilinx-elf/lib/bs/m/le/crt0.o
 .rela.text.w3_high_userio_init
                0x00000000        0x0 c:/xilinx/14.4/ise_ds/edk/gnu/microblaze/nt64/bin/../lib/gcc/microblaze-xilinx-elf/4.6.2/../../../../microblaze-xilinx-elf/lib/bs/m/le/crt0.o
 .rela.text.w3_high_userio_setup_interrupt
                0x00000000        0x0 c:/xilinx/14.4/ise_ds/edk/gnu/microblaze/nt64/bin/../lib/gcc/microblaze-xilinx-elf/4.6.2/../../../../microblaze-xilinx-elf/lib/bs/m/le/crt0.o
 .rela.text._w3_uart_rx_handler
                0x00000000        0x0 c:/xilinx/14.4/ise_ds/edk/gnu/microblaze/nt64/bin/../lib/gcc/microblaze-xilinx-elf/4.6.2/../../../../microblaze-xilinx-elf/lib/bs/m/le/crt0.o
 .rela.text.w3_uart_init
                0x00000000        0x0 c:/xilinx/14.4/ise_ds/edk/gnu/microblaze/nt64/bin/../lib/gcc/microblaze-xilinx-elf/4.6.2/../../../../microblaze-xilinx-elf/lib/bs/m/le/crt0.o
 .rela.text.w3_uart_setup_interrupt
                0x00000000        0x0 c:/xilinx/14.4/ise_ds/edk/gnu/microblaze/nt64/bin/../lib/gcc/microblaze-xilinx-elf/4.6.2/../../../../microblaze-xilinx-elf/lib/bs/m/le/crt0.o
 .rela.text.wlan_platform_common_init
                0x00000000        0x0 c:/xilinx/14.4/ise_ds/edk/gnu/microblaze/nt64/bin/../lib/gcc/microblaze-xilinx-elf/4.6.2/../../../../microblaze-xilinx-elf/lib/bs/m/le/crt0.o
 .rela.text.wlan_platform_get_hw_info
                0x00000000        0x0 c:/xilinx/14.4/ise_ds/edk/gnu/microblaze/nt64/bin/../lib/gcc/microblaze-xilinx-elf/4.6.2/../../../../microblaze-xilinx-elf/lib/bs/m/le/crt0.o
 .rela.text.write_hex_display
                0x00000000        0x0 c:/xilinx/14.4/ise_ds/edk/gnu/microblaze/nt64/bin/../lib/gcc/microblaze-xilinx-elf/4.6.2/../../../../microblaze-xilinx-elf/lib/bs/m/le/crt0.o
 .rela.text.write_hex_display_with_pwm
                0x00000000        0x0 c:/xilinx/14.4/ise_ds/edk/gnu/microblaze/nt64/bin/../lib/gcc/microblaze-xilinx-elf/4.6.2/../../../../microblaze-xilinx-elf/lib/bs/m/le/crt0.o
 .rela.text.wlan_exp_print_header.constprop.0
                0x00000000        0x0 c:/xilinx/14.4/ise_ds/edk/gnu/microblaze/nt64/bin/../lib/gcc/microblaze-xilinx-elf/4.6.2/../../../../microblaze-xilinx-elf/lib/bs/m/le/crt0.o
 .rela.text.wlan_exp_print_header
                0x00000000        0x0 c:/xilinx/14.4/ise_ds/edk/gnu/microblaze/nt64/bin/../lib/gcc/microblaze-xilinx-elf/4.6.2/../../../../microblaze-xilinx-elf/lib/bs/m/le/crt0.o
 .rela.text.print_mac_address
                0x00000000        0x0 c:/xilinx/14.4/ise_ds/edk/gnu/microblaze/nt64/bin/../lib/gcc/microblaze-xilinx-elf/4.6.2/../../../../microblaze-xilinx-elf/lib/bs/m/le/crt0.o
 .rela.text.wlan_exp_print_mac_address
                0x00000000        0x0 c:/xilinx/14.4/ise_ds/edk/gnu/microblaze/nt64/bin/../lib/gcc/microblaze-xilinx-elf/4.6.2/../../../../microblaze-xilinx-elf/lib/bs/m/le/crt0.o
 .rela.text.wlan_exp_set_print_level
                0x00000000        0x0 c:/xilinx/14.4/ise_ds/edk/gnu/microblaze/nt64/bin/../lib/gcc/microblaze-xilinx-elf/4.6.2/../../../../microblaze-xilinx-elf/lib/bs/m/le/crt0.o
 .rela.text.wlan_exp_null_callback
                0x00000000        0x0 c:/xilinx/14.4/ise_ds/edk/gnu/microblaze/nt64/bin/../lib/gcc/microblaze-xilinx-elf/4.6.2/../../../../microblaze-xilinx-elf/lib/bs/m/le/crt0.o
 .rela.text.wlan_exp_get_parameters
                0x00000000        0x0 c:/xilinx/14.4/ise_ds/edk/gnu/microblaze/nt64/bin/../lib/gcc/microblaze-xilinx-elf/4.6.2/../../../../microblaze-xilinx-elf/lib/bs/m/le/crt0.o
 .rela.text.wlan_exp_get_id_in_counts
                0x00000000        0x0 c:/xilinx/14.4/ise_ds/edk/gnu/microblaze/nt64/bin/../lib/gcc/microblaze-xilinx-elf/4.6.2/../../../../microblaze-xilinx-elf/lib/bs/m/le/crt0.o
 .rela.text.wlan_exp_get_id_in_associated_stations
                0x00000000        0x0 c:/xilinx/14.4/ise_ds/edk/gnu/microblaze/nt64/bin/../lib/gcc/microblaze-xilinx-elf/4.6.2/../../../../microblaze-xilinx-elf/lib/bs/m/le/crt0.o
 .rela.text.find_counts_txrx
                0x00000000        0x0 c:/xilinx/14.4/ise_ds/edk/gnu/microblaze/nt64/bin/../lib/gcc/microblaze-xilinx-elf/4.6.2/../../../../microblaze-xilinx-elf/lib/bs/m/le/crt0.o
 .rela.text.ltg_cleanup
                0x00000000        0x0 c:/xilinx/14.4/ise_ds/edk/gnu/microblaze/nt64/bin/../lib/gcc/microblaze-xilinx-elf/4.6.2/../../../../microblaze-xilinx-elf/lib/bs/m/le/crt0.o
 .rela.text.zero_bss_info
                0x00000000        0x0 c:/xilinx/14.4/ise_ds/edk/gnu/microblaze/nt64/bin/../lib/gcc/microblaze-xilinx-elf/4.6.2/../../../../microblaze-xilinx-elf/lib/bs/m/le/crt0.o
 .rela.text.zero_counts_txrx
                0x00000000        0x0 c:/xilinx/14.4/ise_ds/edk/gnu/microblaze/nt64/bin/../lib/gcc/microblaze-xilinx-elf/4.6.2/../../../../microblaze-xilinx-elf/lib/bs/m/le/crt0.o
 .rela.text.zero_station_info
                0x00000000        0x0 c:/xilinx/14.4/ise_ds/edk/gnu/microblaze/nt64/bin/../lib/gcc/microblaze-xilinx-elf/4.6.2/../../../../microblaze-xilinx-elf/lib/bs/m/le/crt0.o
 .rela.text.copy_bss_info_to_dest
                0x00000000        0x0 c:/xilinx/14.4/ise_ds/edk/gnu/microblaze/nt64/bin/../lib/gcc/microblaze-xilinx-elf/4.6.2/../../../../microblaze-xilinx-elf/lib/bs/m/le/crt0.o
 .rela.text.copy_station_info_to_dest
                0x00000000        0x0 c:/xilinx/14.4/ise_ds/edk/gnu/microblaze/nt64/bin/../lib/gcc/microblaze-xilinx-elf/4.6.2/../../../../microblaze-xilinx-elf/lib/bs/m/le/crt0.o
 .rela.text.copy_counts_txrx_to_dest
                0x00000000        0x0 c:/xilinx/14.4/ise_ds/edk/gnu/microblaze/nt64/bin/../lib/gcc/microblaze-xilinx-elf/4.6.2/../../../../microblaze-xilinx-elf/lib/bs/m/le/crt0.o
 .rela.text.find_station_info
                0x00000000        0x0 c:/xilinx/14.4/ise_ds/edk/gnu/microblaze/nt64/bin/../lib/gcc/microblaze-xilinx-elf/4.6.2/../../../../microblaze-xilinx-elf/lib/bs/m/le/crt0.o
 .rela.text.wlan_exp_get_id_in_bss_info
                0x00000000        0x0 c:/xilinx/14.4/ise_ds/edk/gnu/microblaze/nt64/bin/../lib/gcc/microblaze-xilinx-elf/4.6.2/../../../../microblaze-xilinx-elf/lib/bs/m/le/crt0.o
 .rela.text.null_process_cmd_callback
                0x00000000        0x0 c:/xilinx/14.4/ise_ds/edk/gnu/microblaze/nt64/bin/../lib/gcc/microblaze-xilinx-elf/4.6.2/../../../../microblaze-xilinx-elf/lib/bs/m/le/crt0.o
 .rela.text.wlan_exp_node_init
                0x00000000        0x0 c:/xilinx/14.4/ise_ds/edk/gnu/microblaze/nt64/bin/../lib/gcc/microblaze-xilinx-elf/4.6.2/../../../../microblaze-xilinx-elf/lib/bs/m/le/crt0.o
 .rela.text.wlan_exp_node_set_type_design
                0x00000000        0x0 c:/xilinx/14.4/ise_ds/edk/gnu/microblaze/nt64/bin/../lib/gcc/microblaze-xilinx-elf/4.6.2/../../../../microblaze-xilinx-elf/lib/bs/m/le/crt0.o
 .rela.text.wlan_exp_node_set_type_high
                0x00000000        0x0 c:/xilinx/14.4/ise_ds/edk/gnu/microblaze/nt64/bin/../lib/gcc/microblaze-xilinx-elf/4.6.2/../../../../microblaze-xilinx-elf/lib/bs/m/le/crt0.o
 .rela.text.wlan_exp_node_set_type_low
                0x00000000        0x0 c:/xilinx/14.4/ise_ds/edk/gnu/microblaze/nt64/bin/../lib/gcc/microblaze-xilinx-elf/4.6.2/../../../../microblaze-xilinx-elf/lib/bs/m/le/crt0.o
 .rela.text.send_early_resp
                0x00000000        0x0 c:/xilinx/14.4/ise_ds/edk/gnu/microblaze/nt64/bin/../lib/gcc/microblaze-xilinx-elf/4.6.2/../../../../microblaze-xilinx-elf/lib/bs/m/le/crt0.o
 .rela.text.process_buffer_cmds
                0x00000000        0x0 c:/xilinx/14.4/ise_ds/edk/gnu/microblaze/nt64/bin/../lib/gcc/microblaze-xilinx-elf/4.6.2/../../../../microblaze-xilinx-elf/lib/bs/m/le/crt0.o
 .rela.text.transfer_log_data
                0x00000000        0x0 c:/xilinx/14.4/ise_ds/edk/gnu/microblaze/nt64/bin/../lib/gcc/microblaze-xilinx-elf/4.6.2/../../../../microblaze-xilinx-elf/lib/bs/m/le/crt0.o
 .rela.text.process_node_cmd
                0x00000000        0x0 c:/xilinx/14.4/ise_ds/edk/gnu/microblaze/nt64/bin/../lib/gcc/microblaze-xilinx-elf/4.6.2/../../../../microblaze-xilinx-elf/lib/bs/m/le/crt0.o
 .rela.text.process_hton_msg
                0x00000000        0x0 c:/xilinx/14.4/ise_ds/edk/gnu/microblaze/nt64/bin/../lib/gcc/microblaze-xilinx-elf/4.6.2/../../../../microblaze-xilinx-elf/lib/bs/m/le/crt0.o
 .rela.text.wlan_exp_reset_all_callbacks
                0x00000000        0x0 c:/xilinx/14.4/ise_ds/edk/gnu/microblaze/nt64/bin/../lib/gcc/microblaze-xilinx-elf/4.6.2/../../../../microblaze-xilinx-elf/lib/bs/m/le/crt0.o
 .rela.text.wlan_exp_set_purge_all_data_tx_queue_callback
                0x00000000        0x0 c:/xilinx/14.4/ise_ds/edk/gnu/microblaze/nt64/bin/../lib/gcc/microblaze-xilinx-elf/4.6.2/../../../../microblaze-xilinx-elf/lib/bs/m/le/crt0.o
 .rela.text.wlan_exp_set_process_user_cmd_callback
                0x00000000        0x0 c:/xilinx/14.4/ise_ds/edk/gnu/microblaze/nt64/bin/../lib/gcc/microblaze-xilinx-elf/4.6.2/../../../../microblaze-xilinx-elf/lib/bs/m/le/crt0.o
 .rela.text.wlan_exp_set_beacon_ts_update_mode_callback
                0x00000000        0x0 c:/xilinx/14.4/ise_ds/edk/gnu/microblaze/nt64/bin/../lib/gcc/microblaze-xilinx-elf/4.6.2/../../../../microblaze-xilinx-elf/lib/bs/m/le/crt0.o
 .rela.text.wlan_exp_set_process_config_bss_callback
                0x00000000        0x0 c:/xilinx/14.4/ise_ds/edk/gnu/microblaze/nt64/bin/../lib/gcc/microblaze-xilinx-elf/4.6.2/../../../../microblaze-xilinx-elf/lib/bs/m/le/crt0.o
 .rela.text.wlan_exp_set_active_network_info_getter_callback
                0x00000000        0x0 c:/xilinx/14.4/ise_ds/edk/gnu/microblaze/nt64/bin/../lib/gcc/microblaze-xilinx-elf/4.6.2/../../../../microblaze-xilinx-elf/lib/bs/m/le/crt0.o
 .rela.text.node_get_serial_number
                0x00000000        0x0 c:/xilinx/14.4/ise_ds/edk/gnu/microblaze/nt64/bin/../lib/gcc/microblaze-xilinx-elf/4.6.2/../../../../microblaze-xilinx-elf/lib/bs/m/le/crt0.o
 .rela.text.transport_send.constprop.4
                0x00000000        0x0 c:/xilinx/14.4/ise_ds/edk/gnu/microblaze/nt64/bin/../lib/gcc/microblaze-xilinx-elf/4.6.2/../../../../microblaze-xilinx-elf/lib/bs/m/le/crt0.o
 .rela.text.transport_eth_dev_info_init
                0x00000000        0x0 c:/xilinx/14.4/ise_ds/edk/gnu/microblaze/nt64/bin/../lib/gcc/microblaze-xilinx-elf/4.6.2/../../../../microblaze-xilinx-elf/lib/bs/m/le/crt0.o
 .rela.text.transport_close
                0x00000000        0x0 c:/xilinx/14.4/ise_ds/edk/gnu/microblaze/nt64/bin/../lib/gcc/microblaze-xilinx-elf/4.6.2/../../../../microblaze-xilinx-elf/lib/bs/m/le/crt0.o
 .rela.text.transport_receive
                0x00000000        0x0 c:/xilinx/14.4/ise_ds/edk/gnu/microblaze/nt64/bin/../lib/gcc/microblaze-xilinx-elf/4.6.2/../../../../microblaze-xilinx-elf/lib/bs/m/le/crt0.o
 .rela.text.transport_poll
                0x00000000        0x0 c:/xilinx/14.4/ise_ds/edk/gnu/microblaze/nt64/bin/../lib/gcc/microblaze-xilinx-elf/4.6.2/../../../../microblaze-xilinx-elf/lib/bs/m/le/crt0.o
 .rela.text.transport_send
                0x00000000        0x0 c:/xilinx/14.4/ise_ds/edk/gnu/microblaze/nt64/bin/../lib/gcc/microblaze-xilinx-elf/4.6.2/../../../../microblaze-xilinx-elf/lib/bs/m/le/crt0.o
 .rela.text.transport_send_async
                0x00000000        0x0 c:/xilinx/14.4/ise_ds/edk/gnu/microblaze/nt64/bin/../lib/gcc/microblaze-xilinx-elf/4.6.2/../../../../microblaze-xilinx-elf/lib/bs/m/le/crt0.o
 .rela.text.process_transport_cmd
                0x00000000        0x0 c:/xilinx/14.4/ise_ds/edk/gnu/microblaze/nt64/bin/../lib/gcc/microblaze-xilinx-elf/4.6.2/../../../../microblaze-xilinx-elf/lib/bs/m/le/crt0.o
 .rela.text.transport_set_process_hton_msg_callback
                0x00000000        0x0 c:/xilinx/14.4/ise_ds/edk/gnu/microblaze/nt64/bin/../lib/gcc/microblaze-xilinx-elf/4.6.2/../../../../microblaze-xilinx-elf/lib/bs/m/le/crt0.o
 .rela.text.transport_config_socket
                0x00000000        0x0 c:/xilinx/14.4/ise_ds/edk/gnu/microblaze/nt64/bin/../lib/gcc/microblaze-xilinx-elf/4.6.2/../../../../microblaze-xilinx-elf/lib/bs/m/le/crt0.o
 .rela.text.transport_config_sockets
                0x00000000        0x0 c:/xilinx/14.4/ise_ds/edk/gnu/microblaze/nt64/bin/../lib/gcc/microblaze-xilinx-elf/4.6.2/../../../../microblaze-xilinx-elf/lib/bs/m/le/crt0.o
 .rela.text.transport_get_ethernet_status
                0x00000000        0x0 c:/xilinx/14.4/ise_ds/edk/gnu/microblaze/nt64/bin/../lib/gcc/microblaze-xilinx-elf/4.6.2/../../../../microblaze-xilinx-elf/lib/bs/m/le/crt0.o
 .rela.text.transport_link_status
                0x00000000        0x0 c:/xilinx/14.4/ise_ds/edk/gnu/microblaze/nt64/bin/../lib/gcc/microblaze-xilinx-elf/4.6.2/../../../../microblaze-xilinx-elf/lib/bs/m/le/crt0.o
 .rela.text.transport_set_phy_link_speed
                0x00000000        0x0 c:/xilinx/14.4/ise_ds/edk/gnu/microblaze/nt64/bin/../lib/gcc/microblaze-xilinx-elf/4.6.2/../../../../microblaze-xilinx-elf/lib/bs/m/le/crt0.o
 .rela.text.transport_update_link_speed
                0x00000000        0x0 c:/xilinx/14.4/ise_ds/edk/gnu/microblaze/nt64/bin/../lib/gcc/microblaze-xilinx-elf/4.6.2/../../../../microblaze-xilinx-elf/lib/bs/m/le/crt0.o
 .rela.text.transport_init
                0x00000000        0x0 c:/xilinx/14.4/ise_ds/edk/gnu/microblaze/nt64/bin/../lib/gcc/microblaze-xilinx-elf/4.6.2/../../../../microblaze-xilinx-elf/lib/bs/m/le/crt0.o
 .rela.text.transport_set_eth_phy_auto_negotiation
                0x00000000        0x0 c:/xilinx/14.4/ise_ds/edk/gnu/microblaze/nt64/bin/../lib/gcc/microblaze-xilinx-elf/4.6.2/../../../../microblaze-xilinx-elf/lib/bs/m/le/crt0.o
 .rela.text.transport_check_device
                0x00000000        0x0 c:/xilinx/14.4/ise_ds/edk/gnu/microblaze/nt64/bin/../lib/gcc/microblaze-xilinx-elf/4.6.2/../../../../microblaze-xilinx-elf/lib/bs/m/le/crt0.o
 .rela.text.transport_set_hw_addr
                0x00000000        0x0 c:/xilinx/14.4/ise_ds/edk/gnu/microblaze/nt64/bin/../lib/gcc/microblaze-xilinx-elf/4.6.2/../../../../microblaze-xilinx-elf/lib/bs/m/le/crt0.o
 .rela.text.transport_get_hw_addr
                0x00000000        0x0 c:/xilinx/14.4/ise_ds/edk/gnu/microblaze/nt64/bin/../lib/gcc/microblaze-xilinx-elf/4.6.2/../../../../microblaze-xilinx-elf/lib/bs/m/le/crt0.o
 .rela.text.transport_set_ip_addr
                0x00000000        0x0 c:/xilinx/14.4/ise_ds/edk/gnu/microblaze/nt64/bin/../lib/gcc/microblaze-xilinx-elf/4.6.2/../../../../microblaze-xilinx-elf/lib/bs/m/le/crt0.o
 .rela.text.transport_get_ip_addr
                0x00000000        0x0 c:/xilinx/14.4/ise_ds/edk/gnu/microblaze/nt64/bin/../lib/gcc/microblaze-xilinx-elf/4.6.2/../../../../microblaze-xilinx-elf/lib/bs/m/le/crt0.o
 .rela.text.process_user_cmd
                0x00000000        0x0 c:/xilinx/14.4/ise_ds/edk/gnu/microblaze/nt64/bin/../lib/gcc/microblaze-xilinx-elf/4.6.2/../../../../microblaze-xilinx-elf/lib/bs/m/le/crt0.o
 .rela.text.wlan_mac_addr_filter_init
                0x00000000        0x0 c:/xilinx/14.4/ise_ds/edk/gnu/microblaze/nt64/bin/../lib/gcc/microblaze-xilinx-elf/4.6.2/../../../../microblaze-xilinx-elf/lib/bs/m/le/crt0.o
 .rela.text.wlan_mac_addr_filter_reset
                0x00000000        0x0 c:/xilinx/14.4/ise_ds/edk/gnu/microblaze/nt64/bin/../lib/gcc/microblaze-xilinx-elf/4.6.2/../../../../microblaze-xilinx-elf/lib/bs/m/le/crt0.o
 .rela.text.wlan_mac_addr_filter_add
                0x00000000        0x0 c:/xilinx/14.4/ise_ds/edk/gnu/microblaze/nt64/bin/../lib/gcc/microblaze-xilinx-elf/4.6.2/../../../../microblaze-xilinx-elf/lib/bs/m/le/crt0.o
 .rela.text.wlan_mac_addr_filter_is_allowed
                0x00000000        0x0 c:/xilinx/14.4/ise_ds/edk/gnu/microblaze/nt64/bin/../lib/gcc/microblaze-xilinx-elf/4.6.2/../../../../microblaze-xilinx-elf/lib/bs/m/le/crt0.o
 .rela.text.wlan_exp_log_get_mac_payload_len
                0x00000000        0x0 c:/xilinx/14.4/ise_ds/edk/gnu/microblaze/nt64/bin/../lib/gcc/microblaze-xilinx-elf/4.6.2/../../../../microblaze-xilinx-elf/lib/bs/m/le/crt0.o
 .rela.text.wlan_exp_log_set_mac_payload_len
                0x00000000        0x0 c:/xilinx/14.4/ise_ds/edk/gnu/microblaze/nt64/bin/../lib/gcc/microblaze-xilinx-elf/4.6.2/../../../../microblaze-xilinx-elf/lib/bs/m/le/crt0.o
 .rela.text.wlan_exp_log_create_entry
                0x00000000        0x0 c:/xilinx/14.4/ise_ds/edk/gnu/microblaze/nt64/bin/../lib/gcc/microblaze-xilinx-elf/4.6.2/../../../../microblaze-xilinx-elf/lib/bs/m/le/crt0.o
 .rela.text.wlan_exp_log_get_txrx_entry_sizes
                0x00000000        0x0 c:/xilinx/14.4/ise_ds/edk/gnu/microblaze/nt64/bin/../lib/gcc/microblaze-xilinx-elf/4.6.2/../../../../microblaze-xilinx-elf/lib/bs/m/le/crt0.o
 .rela.text.wlan_exp_log_create_rx_entry
                0x00000000        0x0 c:/xilinx/14.4/ise_ds/edk/gnu/microblaze/nt64/bin/../lib/gcc/microblaze-xilinx-elf/4.6.2/../../../../microblaze-xilinx-elf/lib/bs/m/le/crt0.o
 .rela.text.wlan_exp_log_create_tx_high_entry
                0x00000000        0x0 c:/xilinx/14.4/ise_ds/edk/gnu/microblaze/nt64/bin/../lib/gcc/microblaze-xilinx-elf/4.6.2/../../../../microblaze-xilinx-elf/lib/bs/m/le/crt0.o
 .rela.text.wlan_exp_log_create_tx_low_entry
                0x00000000        0x0 c:/xilinx/14.4/ise_ds/edk/gnu/microblaze/nt64/bin/../lib/gcc/microblaze-xilinx-elf/4.6.2/../../../../microblaze-xilinx-elf/lib/bs/m/le/crt0.o
 .rela.text.add_node_info_entry
                0x00000000        0x0 c:/xilinx/14.4/ise_ds/edk/gnu/microblaze/nt64/bin/../lib/gcc/microblaze-xilinx-elf/4.6.2/../../../../microblaze-xilinx-elf/lib/bs/m/le/crt0.o
 .rela.text.add_time_info_entry
                0x00000000        0x0 c:/xilinx/14.4/ise_ds/edk/gnu/microblaze/nt64/bin/../lib/gcc/microblaze-xilinx-elf/4.6.2/../../../../microblaze-xilinx-elf/lib/bs/m/le/crt0.o
 .rela.text.add_temperature_to_log
                0x00000000        0x0 c:/xilinx/14.4/ise_ds/edk/gnu/microblaze/nt64/bin/../lib/gcc/microblaze-xilinx-elf/4.6.2/../../../../microblaze-xilinx-elf/lib/bs/m/le/crt0.o
 .rela.text.wlan_eth_util_init
                0x00000000        0x0 c:/xilinx/14.4/ise_ds/edk/gnu/microblaze/nt64/bin/../lib/gcc/microblaze-xilinx-elf/4.6.2/../../../../microblaze-xilinx-elf/lib/bs/m/le/crt0.o
 .rela.text.wlan_eth_encap
                0x00000000        0x0 c:/xilinx/14.4/ise_ds/edk/gnu/microblaze/nt64/bin/../lib/gcc/microblaze-xilinx-elf/4.6.2/../../../../microblaze-xilinx-elf/lib/bs/m/le/crt0.o
 .rela.text.wlan_process_eth_rx
                0x00000000        0x0 c:/xilinx/14.4/ise_ds/edk/gnu/microblaze/nt64/bin/../lib/gcc/microblaze-xilinx-elf/4.6.2/../../../../microblaze-xilinx-elf/lib/bs/m/le/crt0.o
 .rela.text.wlan_mpdu_eth_send
                0x00000000        0x0 c:/xilinx/14.4/ise_ds/edk/gnu/microblaze/nt64/bin/../lib/gcc/microblaze-xilinx-elf/4.6.2/../../../../microblaze-xilinx-elf/lib/bs/m/le/crt0.o
 .rela.text.event_log_init
                0x00000000        0x0 c:/xilinx/14.4/ise_ds/edk/gnu/microblaze/nt64/bin/../lib/gcc/microblaze-xilinx-elf/4.6.2/../../../../microblaze-xilinx-elf/lib/bs/m/le/crt0.o
 .rela.text.event_log_get_data
                0x00000000        0x0 c:/xilinx/14.4/ise_ds/edk/gnu/microblaze/nt64/bin/../lib/gcc/microblaze-xilinx-elf/4.6.2/../../../../microblaze-xilinx-elf/lib/bs/m/le/crt0.o
 .rela.text.event_log_move_oldest_address
                0x00000000        0x0 c:/xilinx/14.4/ise_ds/edk/gnu/microblaze/nt64/bin/../lib/gcc/microblaze-xilinx-elf/4.6.2/../../../../microblaze-xilinx-elf/lib/bs/m/le/crt0.o
 .rela.text.event_log_increment_oldest_address
                0x00000000        0x0 c:/xilinx/14.4/ise_ds/edk/gnu/microblaze/nt64/bin/../lib/gcc/microblaze-xilinx-elf/4.6.2/../../../../microblaze-xilinx-elf/lib/bs/m/le/crt0.o
 .rela.text.event_log_get_next_empty_address
                0x00000000        0x0 c:/xilinx/14.4/ise_ds/edk/gnu/microblaze/nt64/bin/../lib/gcc/microblaze-xilinx-elf/4.6.2/../../../../microblaze-xilinx-elf/lib/bs/m/le/crt0.o
 .rela.text.print_event_log_size
                0x00000000        0x0 c:/xilinx/14.4/ise_ds/edk/gnu/microblaze/nt64/bin/../lib/gcc/microblaze-xilinx-elf/4.6.2/../../../../microblaze-xilinx-elf/lib/bs/m/le/crt0.o
 .rela.text.wlan_mac_high_interrupt_init
                0x00000000        0x0 c:/xilinx/14.4/ise_ds/edk/gnu/microblaze/nt64/bin/../lib/gcc/microblaze-xilinx-elf/4.6.2/../../../../microblaze-xilinx-elf/lib/bs/m/le/crt0.o
 .rela.text.wlan_mac_high_uart_rx_callback
                0x00000000        0x0 c:/xilinx/14.4/ise_ds/edk/gnu/microblaze/nt64/bin/../lib/gcc/microblaze-xilinx-elf/4.6.2/../../../../microblaze-xilinx-elf/lib/bs/m/le/crt0.o
 .rela.text.wlan_mac_high_interrupt_restore_state
                0x00000000        0x0 c:/xilinx/14.4/ise_ds/edk/gnu/microblaze/nt64/bin/../lib/gcc/microblaze-xilinx-elf/4.6.2/../../../../microblaze-xilinx-elf/lib/bs/m/le/crt0.o
 .rela.text.wlan_mac_high_interrupt_stop
                0x00000000        0x0 c:/xilinx/14.4/ise_ds/edk/gnu/microblaze/nt64/bin/../lib/gcc/microblaze-xilinx-elf/4.6.2/../../../../microblaze-xilinx-elf/lib/bs/m/le/crt0.o
 .rela.text.wlan_mac_high_userio_inputs_callback
                0x00000000        0x0 c:/xilinx/14.4/ise_ds/edk/gnu/microblaze/nt64/bin/../lib/gcc/microblaze-xilinx-elf/4.6.2/../../../../microblaze-xilinx-elf/lib/bs/m/le/crt0.o
 .rela.text.wlan_mac_high_set_press_pb_0_callback
                0x00000000        0x0 c:/xilinx/14.4/ise_ds/edk/gnu/microblaze/nt64/bin/../lib/gcc/microblaze-xilinx-elf/4.6.2/../../../../microblaze-xilinx-elf/lib/bs/m/le/crt0.o
 .rela.text.wlan_mac_high_set_release_pb_0_callback
                0x00000000        0x0 c:/xilinx/14.4/ise_ds/edk/gnu/microblaze/nt64/bin/../lib/gcc/microblaze-xilinx-elf/4.6.2/../../../../microblaze-xilinx-elf/lib/bs/m/le/crt0.o
 .rela.text.wlan_mac_high_set_press_pb_1_callback
                0x00000000        0x0 c:/xilinx/14.4/ise_ds/edk/gnu/microblaze/nt64/bin/../lib/gcc/microblaze-xilinx-elf/4.6.2/../../../../microblaze-xilinx-elf/lib/bs/m/le/crt0.o
 .rela.text.wlan_mac_high_set_release_pb_1_callback
                0x00000000        0x0 c:/xilinx/14.4/ise_ds/edk/gnu/microblaze/nt64/bin/../lib/gcc/microblaze-xilinx-elf/4.6.2/../../../../microblaze-xilinx-elf/lib/bs/m/le/crt0.o
 .rela.text.wlan_mac_high_set_press_pb_2_callback
                0x00000000        0x0 c:/xilinx/14.4/ise_ds/edk/gnu/microblaze/nt64/bin/../lib/gcc/microblaze-xilinx-elf/4.6.2/../../../../microblaze-xilinx-elf/lib/bs/m/le/crt0.o
 .rela.text.wlan_mac_high_set_release_pb_2_callback
                0x00000000        0x0 c:/xilinx/14.4/ise_ds/edk/gnu/microblaze/nt64/bin/../lib/gcc/microblaze-xilinx-elf/4.6.2/../../../../microblaze-xilinx-elf/lib/bs/m/le/crt0.o
 .rela.text.wlan_mac_high_set_uart_rx_callback
                0x00000000        0x0 c:/xilinx/14.4/ise_ds/edk/gnu/microblaze/nt64/bin/../lib/gcc/microblaze-xilinx-elf/4.6.2/../../../../microblaze-xilinx-elf/lib/bs/m/le/crt0.o
 .rela.text.wlan_mac_high_set_mpdu_tx_high_done_callback
                0x00000000        0x0 c:/xilinx/14.4/ise_ds/edk/gnu/microblaze/nt64/bin/../lib/gcc/microblaze-xilinx-elf/4.6.2/../../../../microblaze-xilinx-elf/lib/bs/m/le/crt0.o
 .rela.text.wlan_mac_high_set_mpdu_tx_low_done_callback
                0x00000000        0x0 c:/xilinx/14.4/ise_ds/edk/gnu/microblaze/nt64/bin/../lib/gcc/microblaze-xilinx-elf/4.6.2/../../../../microblaze-xilinx-elf/lib/bs/m/le/crt0.o
 .rela.text.wlan_mac_high_set_beacon_tx_done_callback
                0x00000000        0x0 c:/xilinx/14.4/ise_ds/edk/gnu/microblaze/nt64/bin/../lib/gcc/microblaze-xilinx-elf/4.6.2/../../../../microblaze-xilinx-elf/lib/bs/m/le/crt0.o
 .rela.text.wlan_mac_high_set_mpdu_rx_callback
                0x00000000        0x0 c:/xilinx/14.4/ise_ds/edk/gnu/microblaze/nt64/bin/../lib/gcc/microblaze-xilinx-elf/4.6.2/../../../../microblaze-xilinx-elf/lib/bs/m/le/crt0.o
 .rela.text.wlan_mac_high_set_poll_tx_queues_callback
                0x00000000        0x0 c:/xilinx/14.4/ise_ds/edk/gnu/microblaze/nt64/bin/../lib/gcc/microblaze-xilinx-elf/4.6.2/../../../../microblaze-xilinx-elf/lib/bs/m/le/crt0.o
 .rela.text.wlan_mac_high_set_mpdu_dequeue_callback
                0x00000000        0x0 c:/xilinx/14.4/ise_ds/edk/gnu/microblaze/nt64/bin/../lib/gcc/microblaze-xilinx-elf/4.6.2/../../../../microblaze-xilinx-elf/lib/bs/m/le/crt0.o
 .rela.text.wlan_mac_high_set_cpu_low_reboot_callback
                0x00000000        0x0 c:/xilinx/14.4/ise_ds/edk/gnu/microblaze/nt64/bin/../lib/gcc/microblaze-xilinx-elf/4.6.2/../../../../microblaze-xilinx-elf/lib/bs/m/le/crt0.o
 .rela.text.wlan_mac_high_display_mallinfo
                0x00000000        0x0 c:/xilinx/14.4/ise_ds/edk/gnu/microblaze/nt64/bin/../lib/gcc/microblaze-xilinx-elf/4.6.2/../../../../microblaze-xilinx-elf/lib/bs/m/le/crt0.o
 .rela.text.wlan_mac_high_malloc
                0x00000000        0x0 c:/xilinx/14.4/ise_ds/edk/gnu/microblaze/nt64/bin/../lib/gcc/microblaze-xilinx-elf/4.6.2/../../../../microblaze-xilinx-elf/lib/bs/m/le/crt0.o
 .rela.text.wlan_mac_high_calloc
                0x00000000        0x0 c:/xilinx/14.4/ise_ds/edk/gnu/microblaze/nt64/bin/../lib/gcc/microblaze-xilinx-elf/4.6.2/../../../../microblaze-xilinx-elf/lib/bs/m/le/crt0.o
 .rela.text.wlan_mac_high_realloc
                0x00000000        0x0 c:/xilinx/14.4/ise_ds/edk/gnu/microblaze/nt64/bin/../lib/gcc/microblaze-xilinx-elf/4.6.2/../../../../microblaze-xilinx-elf/lib/bs/m/le/crt0.o
 .rela.text.wlan_mac_high_free
                0x00000000        0x0 c:/xilinx/14.4/ise_ds/edk/gnu/microblaze/nt64/bin/../lib/gcc/microblaze-xilinx-elf/4.6.2/../../../../microblaze-xilinx-elf/lib/bs/m/le/crt0.o
 .rela.text.wlan_mac_high_memory_test
                0x00000000        0x0 c:/xilinx/14.4/ise_ds/edk/gnu/microblaze/nt64/bin/../lib/gcc/microblaze-xilinx-elf/4.6.2/../../../../microblaze-xilinx-elf/lib/bs/m/le/crt0.o
 .rela.text.wlan_mac_high_init
                0x00000000        0x0 c:/xilinx/14.4/ise_ds/edk/gnu/microblaze/nt64/bin/../lib/gcc/microblaze-xilinx-elf/4.6.2/../../../../microblaze-xilinx-elf/lib/bs/m/le/crt0.o
 .rela.text.wlan_mac_high_right_shift_test
                0x00000000        0x0 c:/xilinx/14.4/ise_ds/edk/gnu/microblaze/nt64/bin/../lib/gcc/microblaze-xilinx-elf/4.6.2/../../../../microblaze-xilinx-elf/lib/bs/m/le/crt0.o
 .rela.text.wlan_mac_high_cdma_start_transfer
                0x00000000        0x0 c:/xilinx/14.4/ise_ds/edk/gnu/microblaze/nt64/bin/../lib/gcc/microblaze-xilinx-elf/4.6.2/../../../../microblaze-xilinx-elf/lib/bs/m/le/crt0.o
 .rela.text.wlan_mac_high_cdma_finish_transfer
                0x00000000        0x0 c:/xilinx/14.4/ise_ds/edk/gnu/microblaze/nt64/bin/../lib/gcc/microblaze-xilinx-elf/4.6.2/../../../../microblaze-xilinx-elf/lib/bs/m/le/crt0.o
 .rela.text.wlan_mac_high_mpdu_transmit
                0x00000000        0x0 c:/xilinx/14.4/ise_ds/edk/gnu/microblaze/nt64/bin/../lib/gcc/microblaze-xilinx-elf/4.6.2/../../../../microblaze-xilinx-elf/lib/bs/m/le/crt0.o
 .rela.text.wlan_mac_high_process_ipc_msg
                0x00000000        0x0 c:/xilinx/14.4/ise_ds/edk/gnu/microblaze/nt64/bin/../lib/gcc/microblaze-xilinx-elf/4.6.2/../../../../microblaze-xilinx-elf/lib/bs/m/le/crt0.o
 .rela.text.wlan_mac_high_set_srand
                0x00000000        0x0 c:/xilinx/14.4/ise_ds/edk/gnu/microblaze/nt64/bin/../lib/gcc/microblaze-xilinx-elf/4.6.2/../../../../microblaze-xilinx-elf/lib/bs/m/le/crt0.o
 .rela.text.wlan_mac_high_set_radio_channel
                0x00000000        0x0 c:/xilinx/14.4/ise_ds/edk/gnu/microblaze/nt64/bin/../lib/gcc/microblaze-xilinx-elf/4.6.2/../../../../microblaze-xilinx-elf/lib/bs/m/le/crt0.o
 .rela.text.wlan_mac_high_enable_mcast_buffering
                0x00000000        0x0 c:/xilinx/14.4/ise_ds/edk/gnu/microblaze/nt64/bin/../lib/gcc/microblaze-xilinx-elf/4.6.2/../../../../microblaze-xilinx-elf/lib/bs/m/le/crt0.o
 .rela.text.wlan_mac_high_config_txrx_beacon
                0x00000000        0x0 c:/xilinx/14.4/ise_ds/edk/gnu/microblaze/nt64/bin/../lib/gcc/microblaze-xilinx-elf/4.6.2/../../../../microblaze-xilinx-elf/lib/bs/m/le/crt0.o
 .rela.text.wlan_mac_high_set_rx_ant_mode
                0x00000000        0x0 c:/xilinx/14.4/ise_ds/edk/gnu/microblaze/nt64/bin/../lib/gcc/microblaze-xilinx-elf/4.6.2/../../../../microblaze-xilinx-elf/lib/bs/m/le/crt0.o
 .rela.text.wlan_mac_high_set_tx_ctrl_power
                0x00000000        0x0 c:/xilinx/14.4/ise_ds/edk/gnu/microblaze/nt64/bin/../lib/gcc/microblaze-xilinx-elf/4.6.2/../../../../microblaze-xilinx-elf/lib/bs/m/le/crt0.o
 .rela.text.wlan_mac_high_set_radio_tx_power
                0x00000000        0x0 c:/xilinx/14.4/ise_ds/edk/gnu/microblaze/nt64/bin/../lib/gcc/microblaze-xilinx-elf/4.6.2/../../../../microblaze-xilinx-elf/lib/bs/m/le/crt0.o
 .rela.text.wlan_mac_high_set_rx_filter_mode
                0x00000000        0x0 c:/xilinx/14.4/ise_ds/edk/gnu/microblaze/nt64/bin/../lib/gcc/microblaze-xilinx-elf/4.6.2/../../../../microblaze-xilinx-elf/lib/bs/m/le/crt0.o
 .rela.text.wlan_mac_high_write_low_mem
                0x00000000        0x0 c:/xilinx/14.4/ise_ds/edk/gnu/microblaze/nt64/bin/../lib/gcc/microblaze-xilinx-elf/4.6.2/../../../../microblaze-xilinx-elf/lib/bs/m/le/crt0.o
 .rela.text.wlan_mac_high_read_low_mem
                0x00000000        0x0 c:/xilinx/14.4/ise_ds/edk/gnu/microblaze/nt64/bin/../lib/gcc/microblaze-xilinx-elf/4.6.2/../../../../microblaze-xilinx-elf/lib/bs/m/le/crt0.o
 .rela.text.wlan_mac_high_write_low_param
                0x00000000        0x0 c:/xilinx/14.4/ise_ds/edk/gnu/microblaze/nt64/bin/../lib/gcc/microblaze-xilinx-elf/4.6.2/../../../../microblaze-xilinx-elf/lib/bs/m/le/crt0.o
 .rela.text.wlan_mac_high_set_dsss
                0x00000000        0x0 c:/xilinx/14.4/ise_ds/edk/gnu/microblaze/nt64/bin/../lib/gcc/microblaze-xilinx-elf/4.6.2/../../../../microblaze-xilinx-elf/lib/bs/m/le/crt0.o
 .rela.text.wlan_mac_high_request_low_state
                0x00000000        0x0 c:/xilinx/14.4/ise_ds/edk/gnu/microblaze/nt64/bin/../lib/gcc/microblaze-xilinx-elf/4.6.2/../../../../microblaze-xilinx-elf/lib/bs/m/le/crt0.o
 .rela.text.wlan_mac_high_is_cpu_low_initialized
                0x00000000        0x0 c:/xilinx/14.4/ise_ds/edk/gnu/microblaze/nt64/bin/../lib/gcc/microblaze-xilinx-elf/4.6.2/../../../../microblaze-xilinx-elf/lib/bs/m/le/crt0.o
 .rela.text.wlan_mac_num_tx_pkt_buf_available
                0x00000000        0x0 c:/xilinx/14.4/ise_ds/edk/gnu/microblaze/nt64/bin/../lib/gcc/microblaze-xilinx-elf/4.6.2/../../../../microblaze-xilinx-elf/lib/bs/m/le/crt0.o
 .rela.text.wlan_mac_high_get_empty_tx_packet_buffer
                0x00000000        0x0 c:/xilinx/14.4/ise_ds/edk/gnu/microblaze/nt64/bin/../lib/gcc/microblaze-xilinx-elf/4.6.2/../../../../microblaze-xilinx-elf/lib/bs/m/le/crt0.o
 .rela.text.wlan_mac_high_configure_beacon_tx_template
                0x00000000        0x0 c:/xilinx/14.4/ise_ds/edk/gnu/microblaze/nt64/bin/../lib/gcc/microblaze-xilinx-elf/4.6.2/../../../../microblaze-xilinx-elf/lib/bs/m/le/crt0.o
 .rela.text.wlan_mac_high_update_beacon_tx_params
                0x00000000        0x0 c:/xilinx/14.4/ise_ds/edk/gnu/microblaze/nt64/bin/../lib/gcc/microblaze-xilinx-elf/4.6.2/../../../../microblaze-xilinx-elf/lib/bs/m/le/crt0.o
 .rela.text._mailbox_rx_watchdog
                0x00000000        0x0 c:/xilinx/14.4/ise_ds/edk/gnu/microblaze/nt64/bin/../lib/gcc/microblaze-xilinx-elf/4.6.2/../../../../microblaze-xilinx-elf/lib/bs/m/le/crt0.o
 .rela.text.mailbox_int_handler
                0x00000000        0x0 c:/xilinx/14.4/ise_ds/edk/gnu/microblaze/nt64/bin/../lib/gcc/microblaze-xilinx-elf/4.6.2/../../../../microblaze-xilinx-elf/lib/bs/m/le/crt0.o
 .rela.text.wlan_mac_high_init_mailbox
                0x00000000        0x0 c:/xilinx/14.4/ise_ds/edk/gnu/microblaze/nt64/bin/../lib/gcc/microblaze-xilinx-elf/4.6.2/../../../../microblaze-xilinx-elf/lib/bs/m/le/crt0.o
 .rela.text.wlan_mac_high_ipc_rx
                0x00000000        0x0 c:/xilinx/14.4/ise_ds/edk/gnu/microblaze/nt64/bin/../lib/gcc/microblaze-xilinx-elf/4.6.2/../../../../microblaze-xilinx-elf/lib/bs/m/le/crt0.o
 .rela.text.setup_mailbox_interrupt
                0x00000000        0x0 c:/xilinx/14.4/ise_ds/edk/gnu/microblaze/nt64/bin/../lib/gcc/microblaze-xilinx-elf/4.6.2/../../../../microblaze-xilinx-elf/lib/bs/m/le/crt0.o
 .rela.text.ltg_sched_check
                0x00000000        0x0 c:/xilinx/14.4/ise_ds/edk/gnu/microblaze/nt64/bin/../lib/gcc/microblaze-xilinx-elf/4.6.2/../../../../microblaze-xilinx-elf/lib/bs/m/le/crt0.o
 .rela.text.ltg_sched_create
                0x00000000        0x0 c:/xilinx/14.4/ise_ds/edk/gnu/microblaze/nt64/bin/../lib/gcc/microblaze-xilinx-elf/4.6.2/../../../../microblaze-xilinx-elf/lib/bs/m/le/crt0.o
 .rela.text.ltg_sched_start_l
                0x00000000        0x0 c:/xilinx/14.4/ise_ds/edk/gnu/microblaze/nt64/bin/../lib/gcc/microblaze-xilinx-elf/4.6.2/../../../../microblaze-xilinx-elf/lib/bs/m/le/crt0.o
 .rela.text.ltg_sched_start_all
                0x00000000        0x0 c:/xilinx/14.4/ise_ds/edk/gnu/microblaze/nt64/bin/../lib/gcc/microblaze-xilinx-elf/4.6.2/../../../../microblaze-xilinx-elf/lib/bs/m/le/crt0.o
 .rela.text.ltg_sched_start
                0x00000000        0x0 c:/xilinx/14.4/ise_ds/edk/gnu/microblaze/nt64/bin/../lib/gcc/microblaze-xilinx-elf/4.6.2/../../../../microblaze-xilinx-elf/lib/bs/m/le/crt0.o
 .rela.text.ltg_sched_stop
                0x00000000        0x0 c:/xilinx/14.4/ise_ds/edk/gnu/microblaze/nt64/bin/../lib/gcc/microblaze-xilinx-elf/4.6.2/../../../../microblaze-xilinx-elf/lib/bs/m/le/crt0.o
 .rela.text.ltg_sched_stop_all
                0x00000000        0x0 c:/xilinx/14.4/ise_ds/edk/gnu/microblaze/nt64/bin/../lib/gcc/microblaze-xilinx-elf/4.6.2/../../../../microblaze-xilinx-elf/lib/bs/m/le/crt0.o
 .rela.text.ltg_sched_stop_l
                0x00000000        0x0 c:/xilinx/14.4/ise_ds/edk/gnu/microblaze/nt64/bin/../lib/gcc/microblaze-xilinx-elf/4.6.2/../../../../microblaze-xilinx-elf/lib/bs/m/le/crt0.o
 .rela.text.ltg_sched_get_state
                0x00000000        0x0 c:/xilinx/14.4/ise_ds/edk/gnu/microblaze/nt64/bin/../lib/gcc/microblaze-xilinx-elf/4.6.2/../../../../microblaze-xilinx-elf/lib/bs/m/le/crt0.o
 .rela.text.ltg_sched_remove_all
                0x00000000        0x0 c:/xilinx/14.4/ise_ds/edk/gnu/microblaze/nt64/bin/../lib/gcc/microblaze-xilinx-elf/4.6.2/../../../../microblaze-xilinx-elf/lib/bs/m/le/crt0.o
 .rela.text.ltg_sched_remove
                0x00000000        0x0 c:/xilinx/14.4/ise_ds/edk/gnu/microblaze/nt64/bin/../lib/gcc/microblaze-xilinx-elf/4.6.2/../../../../microblaze-xilinx-elf/lib/bs/m/le/crt0.o
 .rela.text.wlan_mac_ltg_sched_init
                0x00000000        0x0 c:/xilinx/14.4/ise_ds/edk/gnu/microblaze/nt64/bin/../lib/gcc/microblaze-xilinx-elf/4.6.2/../../../../microblaze-xilinx-elf/lib/bs/m/le/crt0.o
 .rela.text.wlan_create_ltg_frame
                0x00000000        0x0 c:/xilinx/14.4/ise_ds/edk/gnu/microblaze/nt64/bin/../lib/gcc/microblaze-xilinx-elf/4.6.2/../../../../microblaze-xilinx-elf/lib/bs/m/le/crt0.o
 .rela.text.ltg_sched_deserialize
                0x00000000        0x0 c:/xilinx/14.4/ise_ds/edk/gnu/microblaze/nt64/bin/../lib/gcc/microblaze-xilinx-elf/4.6.2/../../../../microblaze-xilinx-elf/lib/bs/m/le/crt0.o
 .rela.text.ltg_payload_deserialize
                0x00000000        0x0 c:/xilinx/14.4/ise_ds/edk/gnu/microblaze/nt64/bin/../lib/gcc/microblaze-xilinx-elf/4.6.2/../../../../microblaze-xilinx-elf/lib/bs/m/le/crt0.o
 .rela.text.network_info_timestamp_check
                0x00000000        0x0 c:/xilinx/14.4/ise_ds/edk/gnu/microblaze/nt64/bin/../lib/gcc/microblaze-xilinx-elf/4.6.2/../../../../microblaze-xilinx-elf/lib/bs/m/le/crt0.o
 .rela.text.network_info_init
                0x00000000        0x0 c:/xilinx/14.4/ise_ds/edk/gnu/microblaze/nt64/bin/../lib/gcc/microblaze-xilinx-elf/4.6.2/../../../../microblaze-xilinx-elf/lib/bs/m/le/crt0.o
 .rela.text.network_info_init_finish
                0x00000000        0x0 c:/xilinx/14.4/ise_ds/edk/gnu/microblaze/nt64/bin/../lib/gcc/microblaze-xilinx-elf/4.6.2/../../../../microblaze-xilinx-elf/lib/bs/m/le/crt0.o
 .rela.text.network_info_rx_process
                0x00000000        0x0 c:/xilinx/14.4/ise_ds/edk/gnu/microblaze/nt64/bin/../lib/gcc/microblaze-xilinx-elf/4.6.2/../../../../microblaze-xilinx-elf/lib/bs/m/le/crt0.o
 .rela.text.print_network_info
                0x00000000        0x0 c:/xilinx/14.4/ise_ds/edk/gnu/microblaze/nt64/bin/../lib/gcc/microblaze-xilinx-elf/4.6.2/../../../../microblaze-xilinx-elf/lib/bs/m/le/crt0.o
 .rela.text.network_info_checkout
                0x00000000        0x0 c:/xilinx/14.4/ise_ds/edk/gnu/microblaze/nt64/bin/../lib/gcc/microblaze-xilinx-elf/4.6.2/../../../../microblaze-xilinx-elf/lib/bs/m/le/crt0.o
 .rela.text.network_info_checkin
                0x00000000        0x0 c:/xilinx/14.4/ise_ds/edk/gnu/microblaze/nt64/bin/../lib/gcc/microblaze-xilinx-elf/4.6.2/../../../../microblaze-xilinx-elf/lib/bs/m/le/crt0.o
 .rela.text.wlan_mac_high_find_network_info_SSID
                0x00000000        0x0 c:/xilinx/14.4/ise_ds/edk/gnu/microblaze/nt64/bin/../lib/gcc/microblaze-xilinx-elf/4.6.2/../../../../microblaze-xilinx-elf/lib/bs/m/le/crt0.o
 .rela.text.wlan_mac_high_find_network_info_BSSID
                0x00000000        0x0 c:/xilinx/14.4/ise_ds/edk/gnu/microblaze/nt64/bin/../lib/gcc/microblaze-xilinx-elf/4.6.2/../../../../microblaze-xilinx-elf/lib/bs/m/le/crt0.o
 .rela.text.wlan_mac_high_create_network_info
                0x00000000        0x0 c:/xilinx/14.4/ise_ds/edk/gnu/microblaze/nt64/bin/../lib/gcc/microblaze-xilinx-elf/4.6.2/../../../../microblaze-xilinx-elf/lib/bs/m/le/crt0.o
 .rela.text.wlan_mac_high_reset_network_list
                0x00000000        0x0 c:/xilinx/14.4/ise_ds/edk/gnu/microblaze/nt64/bin/../lib/gcc/microblaze-xilinx-elf/4.6.2/../../../../microblaze-xilinx-elf/lib/bs/m/le/crt0.o
 .rela.text.wlan_mac_high_clear_network_info
                0x00000000        0x0 c:/xilinx/14.4/ise_ds/edk/gnu/microblaze/nt64/bin/../lib/gcc/microblaze-xilinx-elf/4.6.2/../../../../microblaze-xilinx-elf/lib/bs/m/le/crt0.o
 .rela.text.wlan_create_beacon_probe_resp_frame
                0x00000000        0x0 c:/xilinx/14.4/ise_ds/edk/gnu/microblaze/nt64/bin/../lib/gcc/microblaze-xilinx-elf/4.6.2/../../../../microblaze-xilinx-elf/lib/bs/m/le/crt0.o
 .rela.text.wlan_create_probe_req_frame
                0x00000000        0x0 c:/xilinx/14.4/ise_ds/edk/gnu/microblaze/nt64/bin/../lib/gcc/microblaze-xilinx-elf/4.6.2/../../../../microblaze-xilinx-elf/lib/bs/m/le/crt0.o
 .rela.text.wlan_create_reassoc_assoc_req_frame
                0x00000000        0x0 c:/xilinx/14.4/ise_ds/edk/gnu/microblaze/nt64/bin/../lib/gcc/microblaze-xilinx-elf/4.6.2/../../../../microblaze-xilinx-elf/lib/bs/m/le/crt0.o
 .rela.text.wlan_create_association_response_frame
                0x00000000        0x0 c:/xilinx/14.4/ise_ds/edk/gnu/microblaze/nt64/bin/../lib/gcc/microblaze-xilinx-elf/4.6.2/../../../../microblaze-xilinx-elf/lib/bs/m/le/crt0.o
 .rela.text.queue_init
                0x00000000        0x0 c:/xilinx/14.4/ise_ds/edk/gnu/microblaze/nt64/bin/../lib/gcc/microblaze-xilinx-elf/4.6.2/../../../../microblaze-xilinx-elf/lib/bs/m/le/crt0.o
 .rela.text.purge_queue
                0x00000000        0x0 c:/xilinx/14.4/ise_ds/edk/gnu/microblaze/nt64/bin/../lib/gcc/microblaze-xilinx-elf/4.6.2/../../../../microblaze-xilinx-elf/lib/bs/m/le/crt0.o
 .rela.text.enqueue_after_tail
                0x00000000        0x0 c:/xilinx/14.4/ise_ds/edk/gnu/microblaze/nt64/bin/../lib/gcc/microblaze-xilinx-elf/4.6.2/../../../../microblaze-xilinx-elf/lib/bs/m/le/crt0.o
 .rela.text.dequeue_from_head
                0x00000000        0x0 c:/xilinx/14.4/ise_ds/edk/gnu/microblaze/nt64/bin/../lib/gcc/microblaze-xilinx-elf/4.6.2/../../../../microblaze-xilinx-elf/lib/bs/m/le/crt0.o
 .rela.text.queue_checkout
                0x00000000        0x0 c:/xilinx/14.4/ise_ds/edk/gnu/microblaze/nt64/bin/../lib/gcc/microblaze-xilinx-elf/4.6.2/../../../../microblaze-xilinx-elf/lib/bs/m/le/crt0.o
 .rela.text.queue_checkin
                0x00000000        0x0 c:/xilinx/14.4/ise_ds/edk/gnu/microblaze/nt64/bin/../lib/gcc/microblaze-xilinx-elf/4.6.2/../../../../microblaze-xilinx-elf/lib/bs/m/le/crt0.o
 .rela.text.queue_checkout_list
                0x00000000        0x0 c:/xilinx/14.4/ise_ds/edk/gnu/microblaze/nt64/bin/../lib/gcc/microblaze-xilinx-elf/4.6.2/../../../../microblaze-xilinx-elf/lib/bs/m/le/crt0.o
 .rela.text.queue_checkin_list
                0x00000000        0x0 c:/xilinx/14.4/ise_ds/edk/gnu/microblaze/nt64/bin/../lib/gcc/microblaze-xilinx-elf/4.6.2/../../../../microblaze-xilinx-elf/lib/bs/m/le/crt0.o
 .rela.text.transmit_checkin
                0x00000000        0x0 c:/xilinx/14.4/ise_ds/edk/gnu/microblaze/nt64/bin/../lib/gcc/microblaze-xilinx-elf/4.6.2/../../../../microblaze-xilinx-elf/lib/bs/m/le/crt0.o
 .rela.text.wlan_mac_scan_state_transition
                0x00000000        0x0 c:/xilinx/14.4/ise_ds/edk/gnu/microblaze/nt64/bin/../lib/gcc/microblaze-xilinx-elf/4.6.2/../../../../microblaze-xilinx-elf/lib/bs/m/le/crt0.o
 .rela.text.wlan_mac_scan_init
                0x00000000        0x0 c:/xilinx/14.4/ise_ds/edk/gnu/microblaze/nt64/bin/../lib/gcc/microblaze-xilinx-elf/4.6.2/../../../../microblaze-xilinx-elf/lib/bs/m/le/crt0.o
 .rela.text.wlan_mac_scan_set_tx_probe_request_callback
                0x00000000        0x0 c:/xilinx/14.4/ise_ds/edk/gnu/microblaze/nt64/bin/../lib/gcc/microblaze-xilinx-elf/4.6.2/../../../../microblaze-xilinx-elf/lib/bs/m/le/crt0.o
 .rela.text.wlan_mac_scan_set_state_change_callback
                0x00000000        0x0 c:/xilinx/14.4/ise_ds/edk/gnu/microblaze/nt64/bin/../lib/gcc/microblaze-xilinx-elf/4.6.2/../../../../microblaze-xilinx-elf/lib/bs/m/le/crt0.o
 .rela.text.wlan_mac_scan_get_parameters
                0x00000000        0x0 c:/xilinx/14.4/ise_ds/edk/gnu/microblaze/nt64/bin/../lib/gcc/microblaze-xilinx-elf/4.6.2/../../../../microblaze-xilinx-elf/lib/bs/m/le/crt0.o
 .rela.text.wlan_mac_scan_start
                0x00000000        0x0 c:/xilinx/14.4/ise_ds/edk/gnu/microblaze/nt64/bin/../lib/gcc/microblaze-xilinx-elf/4.6.2/../../../../microblaze-xilinx-elf/lib/bs/m/le/crt0.o
 .rela.text.wlan_mac_scan_stop
                0x00000000        0x0 c:/xilinx/14.4/ise_ds/edk/gnu/microblaze/nt64/bin/../lib/gcc/microblaze-xilinx-elf/4.6.2/../../../../microblaze-xilinx-elf/lib/bs/m/le/crt0.o
 .rela.text.wlan_mac_scan_pause
                0x00000000        0x0 c:/xilinx/14.4/ise_ds/edk/gnu/microblaze/nt64/bin/../lib/gcc/microblaze-xilinx-elf/4.6.2/../../../../microblaze-xilinx-elf/lib/bs/m/le/crt0.o
 .rela.text.wlan_mac_scan_resume
                0x00000000        0x0 c:/xilinx/14.4/ise_ds/edk/gnu/microblaze/nt64/bin/../lib/gcc/microblaze-xilinx-elf/4.6.2/../../../../microblaze-xilinx-elf/lib/bs/m/le/crt0.o
 .rela.text.timer_interrupt_handler
                0x00000000        0x0 c:/xilinx/14.4/ise_ds/edk/gnu/microblaze/nt64/bin/../lib/gcc/microblaze-xilinx-elf/4.6.2/../../../../microblaze-xilinx-elf/lib/bs/m/le/crt0.o
 .rela.text.wlan_mac_schedule_init
                0x00000000        0x0 c:/xilinx/14.4/ise_ds/edk/gnu/microblaze/nt64/bin/../lib/gcc/microblaze-xilinx-elf/4.6.2/../../../../microblaze-xilinx-elf/lib/bs/m/le/crt0.o
 .rela.text.wlan_mac_schedule_setup_interrupt
                0x00000000        0x0 c:/xilinx/14.4/ise_ds/edk/gnu/microblaze/nt64/bin/../lib/gcc/microblaze-xilinx-elf/4.6.2/../../../../microblaze-xilinx-elf/lib/bs/m/le/crt0.o
 .rela.text.wlan_mac_schedule_event_repeated
                0x00000000        0x0 c:/xilinx/14.4/ise_ds/edk/gnu/microblaze/nt64/bin/../lib/gcc/microblaze-xilinx-elf/4.6.2/../../../../microblaze-xilinx-elf/lib/bs/m/le/crt0.o
 .rela.text.wlan_mac_schedule_disable_id
                0x00000000        0x0 c:/xilinx/14.4/ise_ds/edk/gnu/microblaze/nt64/bin/../lib/gcc/microblaze-xilinx-elf/4.6.2/../../../../microblaze-xilinx-elf/lib/bs/m/le/crt0.o
 .rela.text.wlan_mac_schedule_enable
                0x00000000        0x0 c:/xilinx/14.4/ise_ds/edk/gnu/microblaze/nt64/bin/../lib/gcc/microblaze-xilinx-elf/4.6.2/../../../../microblaze-xilinx-elf/lib/bs/m/le/crt0.o
 .rela.text.wlan_mac_remove_schedule
                0x00000000        0x0 c:/xilinx/14.4/ise_ds/edk/gnu/microblaze/nt64/bin/../lib/gcc/microblaze-xilinx-elf/4.6.2/../../../../microblaze-xilinx-elf/lib/bs/m/le/crt0.o
 .rela.text.schedule_handler
                0x00000000        0x0 c:/xilinx/14.4/ise_ds/edk/gnu/microblaze/nt64/bin/../lib/gcc/microblaze-xilinx-elf/4.6.2/../../../../microblaze-xilinx-elf/lib/bs/m/le/crt0.o
 .rela.text.station_info_timestamp_check
                0x00000000        0x0 c:/xilinx/14.4/ise_ds/edk/gnu/microblaze/nt64/bin/../lib/gcc/microblaze-xilinx-elf/4.6.2/../../../../microblaze-xilinx-elf/lib/bs/m/le/crt0.o
 .rela.text.station_info_init
                0x00000000        0x0 c:/xilinx/14.4/ise_ds/edk/gnu/microblaze/nt64/bin/../lib/gcc/microblaze-xilinx-elf/4.6.2/../../../../microblaze-xilinx-elf/lib/bs/m/le/crt0.o
 .rela.text.station_info_print
                0x00000000        0x0 c:/xilinx/14.4/ise_ds/edk/gnu/microblaze/nt64/bin/../lib/gcc/microblaze-xilinx-elf/4.6.2/../../../../microblaze-xilinx-elf/lib/bs/m/le/crt0.o
 .rela.text.station_info_reset_all_counts_txrx
                0x00000000        0x0 c:/xilinx/14.4/ise_ds/edk/gnu/microblaze/nt64/bin/../lib/gcc/microblaze-xilinx-elf/4.6.2/../../../../microblaze-xilinx-elf/lib/bs/m/le/crt0.o
 .rela.text.station_info_checkout
                0x00000000        0x0 c:/xilinx/14.4/ise_ds/edk/gnu/microblaze/nt64/bin/../lib/gcc/microblaze-xilinx-elf/4.6.2/../../../../microblaze-xilinx-elf/lib/bs/m/le/crt0.o
 .rela.text.station_info_checkin
                0x00000000        0x0 c:/xilinx/14.4/ise_ds/edk/gnu/microblaze/nt64/bin/../lib/gcc/microblaze-xilinx-elf/4.6.2/../../../../microblaze-xilinx-elf/lib/bs/m/le/crt0.o
 .rela.text.station_info_find_by_id
                0x00000000        0x0 c:/xilinx/14.4/ise_ds/edk/gnu/microblaze/nt64/bin/../lib/gcc/microblaze-xilinx-elf/4.6.2/../../../../microblaze-xilinx-elf/lib/bs/m/le/crt0.o
 .rela.text.station_info_find_by_addr
                0x00000000        0x0 c:/xilinx/14.4/ise_ds/edk/gnu/microblaze/nt64/bin/../lib/gcc/microblaze-xilinx-elf/4.6.2/../../../../microblaze-xilinx-elf/lib/bs/m/le/crt0.o
 .rela.text.station_info_create
                0x00000000        0x0 c:/xilinx/14.4/ise_ds/edk/gnu/microblaze/nt64/bin/../lib/gcc/microblaze-xilinx-elf/4.6.2/../../../../microblaze-xilinx-elf/lib/bs/m/le/crt0.o
 .rela.text.station_info_reset_all
                0x00000000        0x0 c:/xilinx/14.4/ise_ds/edk/gnu/microblaze/nt64/bin/../lib/gcc/microblaze-xilinx-elf/4.6.2/../../../../microblaze-xilinx-elf/lib/bs/m/le/crt0.o
 .rela.text.txrx_counts_zero_all
                0x00000000        0x0 c:/xilinx/14.4/ise_ds/edk/gnu/microblaze/nt64/bin/../lib/gcc/microblaze-xilinx-elf/4.6.2/../../../../microblaze-xilinx-elf/lib/bs/m/le/crt0.o
 .rela.text.station_info_clear_txrx_counts
                0x00000000        0x0 c:/xilinx/14.4/ise_ds/edk/gnu/microblaze/nt64/bin/../lib/gcc/microblaze-xilinx-elf/4.6.2/../../../../microblaze-xilinx-elf/lib/bs/m/le/crt0.o
 .rela.text.station_info_clear
                0x00000000        0x0 c:/xilinx/14.4/ise_ds/edk/gnu/microblaze/nt64/bin/../lib/gcc/microblaze-xilinx-elf/4.6.2/../../../../microblaze-xilinx-elf/lib/bs/m/le/crt0.o
 .rela.text.station_info_add
                0x00000000        0x0 c:/xilinx/14.4/ise_ds/edk/gnu/microblaze/nt64/bin/../lib/gcc/microblaze-xilinx-elf/4.6.2/../../../../microblaze-xilinx-elf/lib/bs/m/le/crt0.o
 .rela.text.station_info_remove
                0x00000000        0x0 c:/xilinx/14.4/ise_ds/edk/gnu/microblaze/nt64/bin/../lib/gcc/microblaze-xilinx-elf/4.6.2/../../../../microblaze-xilinx-elf/lib/bs/m/le/crt0.o
 .rela.text.eth_init_device_info
                0x00000000        0x0 c:/xilinx/14.4/ise_ds/edk/gnu/microblaze/nt64/bin/../lib/gcc/microblaze-xilinx-elf/4.6.2/../../../../microblaze-xilinx-elf/lib/bs/m/le/crt0.o
 .rela.text.eth_set_interrupt_enable_callback
                0x00000000        0x0 c:/xilinx/14.4/ise_ds/edk/gnu/microblaze/nt64/bin/../lib/gcc/microblaze-xilinx-elf/4.6.2/../../../../microblaze-xilinx-elf/lib/bs/m/le/crt0.o
 .rela.text.eth_set_interrupt_disable_callback
                0x00000000        0x0 c:/xilinx/14.4/ise_ds/edk/gnu/microblaze/nt64/bin/../lib/gcc/microblaze-xilinx-elf/4.6.2/../../../../microblaze-xilinx-elf/lib/bs/m/le/crt0.o
 .rela.text.eth_update_header
                0x00000000        0x0 c:/xilinx/14.4/ise_ds/edk/gnu/microblaze/nt64/bin/../lib/gcc/microblaze-xilinx-elf/4.6.2/../../../../microblaze-xilinx-elf/lib/bs/m/le/crt0.o
 .rela.text.eth_print_err_msg
                0x00000000        0x0 c:/xilinx/14.4/ise_ds/edk/gnu/microblaze/nt64/bin/../lib/gcc/microblaze-xilinx-elf/4.6.2/../../../../microblaze-xilinx-elf/lib/bs/m/le/crt0.o
 .rela.text.eth_check_dma
                0x00000000        0x0 c:/xilinx/14.4/ise_ds/edk/gnu/microblaze/nt64/bin/../lib/gcc/microblaze-xilinx-elf/4.6.2/../../../../microblaze-xilinx-elf/lib/bs/m/le/crt0.o
 .rela.text.eth_check_device
                0x00000000        0x0 c:/xilinx/14.4/ise_ds/edk/gnu/microblaze/nt64/bin/../lib/gcc/microblaze-xilinx-elf/4.6.2/../../../../microblaze-xilinx-elf/lib/bs/m/le/crt0.o
 .rela.text.eth_process_tx_descriptors
                0x00000000        0x0 c:/xilinx/14.4/ise_ds/edk/gnu/microblaze/nt64/bin/../lib/gcc/microblaze-xilinx-elf/4.6.2/../../../../microblaze-xilinx-elf/lib/bs/m/le/crt0.o
 .rela.text.eth_init_device
                0x00000000        0x0 c:/xilinx/14.4/ise_ds/edk/gnu/microblaze/nt64/bin/../lib/gcc/microblaze-xilinx-elf/4.6.2/../../../../microblaze-xilinx-elf/lib/bs/m/le/crt0.o
 .rela.text.eth_init_dma
                0x00000000        0x0 c:/xilinx/14.4/ise_ds/edk/gnu/microblaze/nt64/bin/../lib/gcc/microblaze-xilinx-elf/4.6.2/../../../../microblaze-xilinx-elf/lib/bs/m/le/crt0.o
 .rela.text.eth_free_recv_buffers.part.1.constprop.3
                0x00000000        0x0 c:/xilinx/14.4/ise_ds/edk/gnu/microblaze/nt64/bin/../lib/gcc/microblaze-xilinx-elf/4.6.2/../../../../microblaze-xilinx-elf/lib/bs/m/le/crt0.o
 .rela.text.eth_start_device
                0x00000000        0x0 c:/xilinx/14.4/ise_ds/edk/gnu/microblaze/nt64/bin/../lib/gcc/microblaze-xilinx-elf/4.6.2/../../../../microblaze-xilinx-elf/lib/bs/m/le/crt0.o
 .rela.text.eth_get_ip_addr
                0x00000000        0x0 c:/xilinx/14.4/ise_ds/edk/gnu/microblaze/nt64/bin/../lib/gcc/microblaze-xilinx-elf/4.6.2/../../../../microblaze-xilinx-elf/lib/bs/m/le/crt0.o
 .rela.text.eth_set_ip_addr
                0x00000000        0x0 c:/xilinx/14.4/ise_ds/edk/gnu/microblaze/nt64/bin/../lib/gcc/microblaze-xilinx-elf/4.6.2/../../../../microblaze-xilinx-elf/lib/bs/m/le/crt0.o
 .rela.text.eth_get_hw_addr
                0x00000000        0x0 c:/xilinx/14.4/ise_ds/edk/gnu/microblaze/nt64/bin/../lib/gcc/microblaze-xilinx-elf/4.6.2/../../../../microblaze-xilinx-elf/lib/bs/m/le/crt0.o
 .rela.text.eth_set_hw_addr
                0x00000000        0x0 c:/xilinx/14.4/ise_ds/edk/gnu/microblaze/nt64/bin/../lib/gcc/microblaze-xilinx-elf/4.6.2/../../../../microblaze-xilinx-elf/lib/bs/m/le/crt0.o
 .rela.text.eth_set_mac_operating_speed
                0x00000000        0x0 c:/xilinx/14.4/ise_ds/edk/gnu/microblaze/nt64/bin/../lib/gcc/microblaze-xilinx-elf/4.6.2/../../../../microblaze-xilinx-elf/lib/bs/m/le/crt0.o
 .rela.text.eth_write_phy_reg
                0x00000000        0x0 c:/xilinx/14.4/ise_ds/edk/gnu/microblaze/nt64/bin/../lib/gcc/microblaze-xilinx-elf/4.6.2/../../../../microblaze-xilinx-elf/lib/bs/m/le/crt0.o
 .rela.text.eth_read_phy_reg
                0x00000000        0x0 c:/xilinx/14.4/ise_ds/edk/gnu/microblaze/nt64/bin/../lib/gcc/microblaze-xilinx-elf/4.6.2/../../../../microblaze-xilinx-elf/lib/bs/m/le/crt0.o
 .rela.text.eth_free_recv_buffers
                0x00000000        0x0 c:/xilinx/14.4/ise_ds/edk/gnu/microblaze/nt64/bin/../lib/gcc/microblaze-xilinx-elf/4.6.2/../../../../microblaze-xilinx-elf/lib/bs/m/le/crt0.o
 .rela.text.eth_init
                0x00000000        0x0 c:/xilinx/14.4/ise_ds/edk/gnu/microblaze/nt64/bin/../lib/gcc/microblaze-xilinx-elf/4.6.2/../../../../microblaze-xilinx-elf/lib/bs/m/le/crt0.o
 .rela.text.eth_recv_frame
                0x00000000        0x0 c:/xilinx/14.4/ise_ds/edk/gnu/microblaze/nt64/bin/../lib/gcc/microblaze-xilinx-elf/4.6.2/../../../../microblaze-xilinx-elf/lib/bs/m/le/crt0.o
 .rela.text.eth_send_frame
                0x00000000        0x0 c:/xilinx/14.4/ise_ds/edk/gnu/microblaze/nt64/bin/../lib/gcc/microblaze-xilinx-elf/4.6.2/../../../../microblaze-xilinx-elf/lib/bs/m/le/crt0.o
 .rela.text.eth_init_global_structures
                0x00000000        0x0 c:/xilinx/14.4/ise_ds/edk/gnu/microblaze/nt64/bin/../lib/gcc/microblaze-xilinx-elf/4.6.2/../../../../microblaze-xilinx-elf/lib/bs/m/le/crt0.o
 .rela.text.socket_init_sockets
                0x00000000        0x0 c:/xilinx/14.4/ise_ds/edk/gnu/microblaze/nt64/bin/../lib/gcc/microblaze-xilinx-elf/4.6.2/../../../../microblaze-xilinx-elf/lib/bs/m/le/crt0.o
 .rela.text.arp_init_cache
                0x00000000        0x0 c:/xilinx/14.4/ise_ds/edk/gnu/microblaze/nt64/bin/../lib/gcc/microblaze-xilinx-elf/4.6.2/../../../../microblaze-xilinx-elf/lib/bs/m/le/crt0.o
 .rela.text.wlan_exp_ip_udp_init
                0x00000000        0x0 c:/xilinx/14.4/ise_ds/edk/gnu/microblaze/nt64/bin/../lib/gcc/microblaze-xilinx-elf/4.6.2/../../../../microblaze-xilinx-elf/lib/bs/m/le/crt0.o
 .rela.text.ipv4_update_header
                0x00000000        0x0 c:/xilinx/14.4/ise_ds/edk/gnu/microblaze/nt64/bin/../lib/gcc/microblaze-xilinx-elf/4.6.2/../../../../microblaze-xilinx-elf/lib/bs/m/le/crt0.o
 .rela.text.udp_process_packet
                0x00000000        0x0 c:/xilinx/14.4/ise_ds/edk/gnu/microblaze/nt64/bin/../lib/gcc/microblaze-xilinx-elf/4.6.2/../../../../microblaze-xilinx-elf/lib/bs/m/le/crt0.o
 .rela.text.udp_init_header
                0x00000000        0x0 c:/xilinx/14.4/ise_ds/edk/gnu/microblaze/nt64/bin/../lib/gcc/microblaze-xilinx-elf/4.6.2/../../../../microblaze-xilinx-elf/lib/bs/m/le/crt0.o
 .rela.text.udp_update_header
                0x00000000        0x0 c:/xilinx/14.4/ise_ds/edk/gnu/microblaze/nt64/bin/../lib/gcc/microblaze-xilinx-elf/4.6.2/../../../../microblaze-xilinx-elf/lib/bs/m/le/crt0.o
 .rela.text.arp_reply
                0x00000000        0x0 c:/xilinx/14.4/ise_ds/edk/gnu/microblaze/nt64/bin/../lib/gcc/microblaze-xilinx-elf/4.6.2/../../../../microblaze-xilinx-elf/lib/bs/m/le/crt0.o
 .rela.text.arp_request
                0x00000000        0x0 c:/xilinx/14.4/ise_ds/edk/gnu/microblaze/nt64/bin/../lib/gcc/microblaze-xilinx-elf/4.6.2/../../../../microblaze-xilinx-elf/lib/bs/m/le/crt0.o
 .rela.text.arp_send_announcement
                0x00000000        0x0 c:/xilinx/14.4/ise_ds/edk/gnu/microblaze/nt64/bin/../lib/gcc/microblaze-xilinx-elf/4.6.2/../../../../microblaze-xilinx-elf/lib/bs/m/le/crt0.o
 .rela.text.arp_get_hw_addr
                0x00000000        0x0 c:/xilinx/14.4/ise_ds/edk/gnu/microblaze/nt64/bin/../lib/gcc/microblaze-xilinx-elf/4.6.2/../../../../microblaze-xilinx-elf/lib/bs/m/le/crt0.o
 .rela.text.arp_update_cache
                0x00000000        0x0 c:/xilinx/14.4/ise_ds/edk/gnu/microblaze/nt64/bin/../lib/gcc/microblaze-xilinx-elf/4.6.2/../../../../microblaze-xilinx-elf/lib/bs/m/le/crt0.o
 .rela.text.arp_process_packet
                0x00000000        0x0 c:/xilinx/14.4/ise_ds/edk/gnu/microblaze/nt64/bin/../lib/gcc/microblaze-xilinx-elf/4.6.2/../../../../microblaze-xilinx-elf/lib/bs/m/le/crt0.o
 .rela.text.imcp_echo_reply
                0x00000000        0x0 c:/xilinx/14.4/ise_ds/edk/gnu/microblaze/nt64/bin/../lib/gcc/microblaze-xilinx-elf/4.6.2/../../../../microblaze-xilinx-elf/lib/bs/m/le/crt0.o
 .rela.text.ipv4_process_packet
                0x00000000        0x0 c:/xilinx/14.4/ise_ds/edk/gnu/microblaze/nt64/bin/../lib/gcc/microblaze-xilinx-elf/4.6.2/../../../../microblaze-xilinx-elf/lib/bs/m/le/crt0.o
 .rela.text.socket_socket
                0x00000000        0x0 c:/xilinx/14.4/ise_ds/edk/gnu/microblaze/nt64/bin/../lib/gcc/microblaze-xilinx-elf/4.6.2/../../../../microblaze-xilinx-elf/lib/bs/m/le/crt0.o
 .rela.text.socket_bind_eth
                0x00000000        0x0 c:/xilinx/14.4/ise_ds/edk/gnu/microblaze/nt64/bin/../lib/gcc/microblaze-xilinx-elf/4.6.2/../../../../microblaze-xilinx-elf/lib/bs/m/le/crt0.o
 .rela.text.socket_close
                0x00000000        0x0 c:/xilinx/14.4/ise_ds/edk/gnu/microblaze/nt64/bin/../lib/gcc/microblaze-xilinx-elf/4.6.2/../../../../microblaze-xilinx-elf/lib/bs/m/le/crt0.o
 .rela.text.socket_sendto
                0x00000000        0x0 c:/xilinx/14.4/ise_ds/edk/gnu/microblaze/nt64/bin/../lib/gcc/microblaze-xilinx-elf/4.6.2/../../../../microblaze-xilinx-elf/lib/bs/m/le/crt0.o
 .rela.text.socket_sendto_raw
                0x00000000        0x0 c:/xilinx/14.4/ise_ds/edk/gnu/microblaze/nt64/bin/../lib/gcc/microblaze-xilinx-elf/4.6.2/../../../../microblaze-xilinx-elf/lib/bs/m/le/crt0.o
 .rela.text.socket_recvfrom_eth
                0x00000000        0x0 c:/xilinx/14.4/ise_ds/edk/gnu/microblaze/nt64/bin/../lib/gcc/microblaze-xilinx-elf/4.6.2/../../../../microblaze-xilinx-elf/lib/bs/m/le/crt0.o
 .rela.text.socket_alloc_send_buffer
                0x00000000        0x0 c:/xilinx/14.4/ise_ds/edk/gnu/microblaze/nt64/bin/../lib/gcc/microblaze-xilinx-elf/4.6.2/../../../../microblaze-xilinx-elf/lib/bs/m/le/crt0.o
 .rela.text.socket_free_send_buffer
                0x00000000        0x0 c:/xilinx/14.4/ise_ds/edk/gnu/microblaze/nt64/bin/../lib/gcc/microblaze-xilinx-elf/4.6.2/../../../../microblaze-xilinx-elf/lib/bs/m/le/crt0.o
 .rela.text.socket_free_recv_buffer
                0x00000000        0x0 c:/xilinx/14.4/ise_ds/edk/gnu/microblaze/nt64/bin/../lib/gcc/microblaze-xilinx-elf/4.6.2/../../../../microblaze-xilinx-elf/lib/bs/m/le/crt0.o
 .rela.text.socket_find_index_by_eth
                0x00000000        0x0 c:/xilinx/14.4/ise_ds/edk/gnu/microblaze/nt64/bin/../lib/gcc/microblaze-xilinx-elf/4.6.2/../../../../microblaze-xilinx-elf/lib/bs/m/le/crt0.o
 .rela.text.socket_get_eth_dev_num
                0x00000000        0x0 c:/xilinx/14.4/ise_ds/edk/gnu/microblaze/nt64/bin/../lib/gcc/microblaze-xilinx-elf/4.6.2/../../../../microblaze-xilinx-elf/lib/bs/m/le/crt0.o
 .rela.text.socket_get_wlan_exp_ip_udp_header
                0x00000000        0x0 c:/xilinx/14.4/ise_ds/edk/gnu/microblaze/nt64/bin/../lib/gcc/microblaze-xilinx-elf/4.6.2/../../../../microblaze-xilinx-elf/lib/bs/m/le/crt0.o
 .rela.text.socket_alloc_socket
                0x00000000        0x0 c:/xilinx/14.4/ise_ds/edk/gnu/microblaze/nt64/bin/../lib/gcc/microblaze-xilinx-elf/4.6.2/../../../../microblaze-xilinx-elf/lib/bs/m/le/crt0.o
 .rela.text.socket_get_socket
                0x00000000        0x0 c:/xilinx/14.4/ise_ds/edk/gnu/microblaze/nt64/bin/../lib/gcc/microblaze-xilinx-elf/4.6.2/../../../../microblaze-xilinx-elf/lib/bs/m/le/crt0.o
 .rela.text.wlan_mac_common_malloc_init
                0x00000000        0x0 c:/xilinx/14.4/ise_ds/edk/gnu/microblaze/nt64/bin/../lib/gcc/microblaze-xilinx-elf/4.6.2/../../../../microblaze-xilinx-elf/lib/bs/m/le/crt0.o
 .rela.text.wlan_mac_time_to_hr_min_sec
                0x00000000        0x0 c:/xilinx/14.4/ise_ds/edk/gnu/microblaze/nt64/bin/../lib/gcc/microblaze-xilinx-elf/4.6.2/../../../../microblaze-xilinx-elf/lib/bs/m/le/crt0.o
 .rela.text.dl_list_init
                0x00000000        0x0 c:/xilinx/14.4/ise_ds/edk/gnu/microblaze/nt64/bin/../lib/gcc/microblaze-xilinx-elf/4.6.2/../../../../microblaze-xilinx-elf/lib/bs/m/le/crt0.o
 .rela.text.dl_entry_insertAfter
                0x00000000        0x0 c:/xilinx/14.4/ise_ds/edk/gnu/microblaze/nt64/bin/../lib/gcc/microblaze-xilinx-elf/4.6.2/../../../../microblaze-xilinx-elf/lib/bs/m/le/crt0.o
 .rela.text.dl_entry_insertBefore
                0x00000000        0x0 c:/xilinx/14.4/ise_ds/edk/gnu/microblaze/nt64/bin/../lib/gcc/microblaze-xilinx-elf/4.6.2/../../../../microblaze-xilinx-elf/lib/bs/m/le/crt0.o
 .rela.text.dl_entry_insertBeginning
                0x00000000        0x0 c:/xilinx/14.4/ise_ds/edk/gnu/microblaze/nt64/bin/../lib/gcc/microblaze-xilinx-elf/4.6.2/../../../../microblaze-xilinx-elf/lib/bs/m/le/crt0.o
 .rela.text.dl_entry_insertEnd
                0x00000000        0x0 c:/xilinx/14.4/ise_ds/edk/gnu/microblaze/nt64/bin/../lib/gcc/microblaze-xilinx-elf/4.6.2/../../../../microblaze-xilinx-elf/lib/bs/m/le/crt0.o
 .rela.text.dl_entry_remove
                0x00000000        0x0 c:/xilinx/14.4/ise_ds/edk/gnu/microblaze/nt64/bin/../lib/gcc/microblaze-xilinx-elf/4.6.2/../../../../microblaze-xilinx-elf/lib/bs/m/le/crt0.o
 .rela.text.init_mailbox
                0x00000000        0x0 c:/xilinx/14.4/ise_ds/edk/gnu/microblaze/nt64/bin/../lib/gcc/microblaze-xilinx-elf/4.6.2/../../../../microblaze-xilinx-elf/lib/bs/m/le/crt0.o
 .rela.text.write_mailbox_msg
                0x00000000        0x0 c:/xilinx/14.4/ise_ds/edk/gnu/microblaze/nt64/bin/../lib/gcc/microblaze-xilinx-elf/4.6.2/../../../../microblaze-xilinx-elf/lib/bs/m/le/crt0.o
 .rela.text.send_msg
                0x00000000        0x0 c:/xilinx/14.4/ise_ds/edk/gnu/microblaze/nt64/bin/../lib/gcc/microblaze-xilinx-elf/4.6.2/../../../../microblaze-xilinx-elf/lib/bs/m/le/crt0.o
 .rela.text.read_mailbox_msg
                0x00000000        0x0 c:/xilinx/14.4/ise_ds/edk/gnu/microblaze/nt64/bin/../lib/gcc/microblaze-xilinx-elf/4.6.2/../../../../microblaze-xilinx-elf/lib/bs/m/le/crt0.o
 .rela.text.init_pkt_buf
                0x00000000        0x0 c:/xilinx/14.4/ise_ds/edk/gnu/microblaze/nt64/bin/../lib/gcc/microblaze-xilinx-elf/4.6.2/../../../../microblaze-xilinx-elf/lib/bs/m/le/crt0.o
 .rela.text.lock_tx_pkt_buf
                0x00000000        0x0 c:/xilinx/14.4/ise_ds/edk/gnu/microblaze/nt64/bin/../lib/gcc/microblaze-xilinx-elf/4.6.2/../../../../microblaze-xilinx-elf/lib/bs/m/le/crt0.o
 .rela.text.lock_rx_pkt_buf
                0x00000000        0x0 c:/xilinx/14.4/ise_ds/edk/gnu/microblaze/nt64/bin/../lib/gcc/microblaze-xilinx-elf/4.6.2/../../../../microblaze-xilinx-elf/lib/bs/m/le/crt0.o
 .rela.text.force_lock_tx_pkt_buf
                0x00000000        0x0 c:/xilinx/14.4/ise_ds/edk/gnu/microblaze/nt64/bin/../lib/gcc/microblaze-xilinx-elf/4.6.2/../../../../microblaze-xilinx-elf/lib/bs/m/le/crt0.o
 .rela.text.force_lock_rx_pkt_buf
                0x00000000        0x0 c:/xilinx/14.4/ise_ds/edk/gnu/microblaze/nt64/bin/../lib/gcc/microblaze-xilinx-elf/4.6.2/../../../../microblaze-xilinx-elf/lib/bs/m/le/crt0.o
 .rela.text.unlock_tx_pkt_buf
                0x00000000        0x0 c:/xilinx/14.4/ise_ds/edk/gnu/microblaze/nt64/bin/../lib/gcc/microblaze-xilinx-elf/4.6.2/../../../../microblaze-xilinx-elf/lib/bs/m/le/crt0.o
 .rela.text.unlock_rx_pkt_buf
                0x00000000        0x0 c:/xilinx/14.4/ise_ds/edk/gnu/microblaze/nt64/bin/../lib/gcc/microblaze-xilinx-elf/4.6.2/../../../../microblaze-xilinx-elf/lib/bs/m/le/crt0.o
 .rela.text.get_tx_pkt_buf_status
                0x00000000        0x0 c:/xilinx/14.4/ise_ds/edk/gnu/microblaze/nt64/bin/../lib/gcc/microblaze-xilinx-elf/4.6.2/../../../../microblaze-xilinx-elf/lib/bs/m/le/crt0.o
 .rela.text.get_rx_pkt_buf_status
                0x00000000        0x0 c:/xilinx/14.4/ise_ds/edk/gnu/microblaze/nt64/bin/../lib/gcc/microblaze-xilinx-elf/4.6.2/../../../../microblaze-xilinx-elf/lib/bs/m/le/crt0.o
 .rela.text.wlan_exp_process_node_cmd
                0x00000000        0x0 c:/xilinx/14.4/ise_ds/edk/gnu/microblaze/nt64/bin/../lib/gcc/microblaze-xilinx-elf/4.6.2/../../../../microblaze-xilinx-elf/lib/bs/m/le/crt0.o
 .rela.text.active_network_info_getter
                0x00000000        0x0 c:/xilinx/14.4/ise_ds/edk/gnu/microblaze/nt64/bin/../lib/gcc/microblaze-xilinx-elf/4.6.2/../../../../microblaze-xilinx-elf/lib/bs/m/le/crt0.o
 .rela.text.configure_bss
                0x00000000        0x0 c:/xilinx/14.4/ise_ds/edk/gnu/microblaze/nt64/bin/../lib/gcc/microblaze-xilinx-elf/4.6.2/../../../../microblaze-xilinx-elf/lib/bs/m/le/crt0.o
 .rela.text.ltg_event
                0x00000000        0x0 c:/xilinx/14.4/ise_ds/edk/gnu/microblaze/nt64/bin/../lib/gcc/microblaze-xilinx-elf/4.6.2/../../../../microblaze-xilinx-elf/lib/bs/m/le/crt0.o
 .rela.text.mpdu_rx_process
                0x00000000        0x0 c:/xilinx/14.4/ise_ds/edk/gnu/microblaze/nt64/bin/../lib/gcc/microblaze-xilinx-elf/4.6.2/../../../../microblaze-xilinx-elf/lib/bs/m/le/crt0.o
 .rela.text.ethernet_receive
                0x00000000        0x0 c:/xilinx/14.4/ise_ds/edk/gnu/microblaze/nt64/bin/../lib/gcc/microblaze-xilinx-elf/4.6.2/../../../../microblaze-xilinx-elf/lib/bs/m/le/crt0.o
 .rela.text.poll_tx_queues
                0x00000000        0x0 c:/xilinx/14.4/ise_ds/edk/gnu/microblaze/nt64/bin/../lib/gcc/microblaze-xilinx-elf/4.6.2/../../../../microblaze-xilinx-elf/lib/bs/m/le/crt0.o
 .rela.text.send_probe_req
                0x00000000        0x0 c:/xilinx/14.4/ise_ds/edk/gnu/microblaze/nt64/bin/../lib/gcc/microblaze-xilinx-elf/4.6.2/../../../../microblaze-xilinx-elf/lib/bs/m/le/crt0.o
 .rela.text.wlan_exp_process_user_cmd
                0x00000000        0x0 c:/xilinx/14.4/ise_ds/edk/gnu/microblaze/nt64/bin/../lib/gcc/microblaze-xilinx-elf/4.6.2/../../../../microblaze-xilinx-elf/lib/bs/m/le/crt0.o
 .rela.text.process_scan_state_change
                0x00000000        0x0 c:/xilinx/14.4/ise_ds/edk/gnu/microblaze/nt64/bin/../lib/gcc/microblaze-xilinx-elf/4.6.2/../../../../microblaze-xilinx-elf/lib/bs/m/le/crt0.o
 .rela.text.startup.main
                0x00000000        0x0 c:/xilinx/14.4/ise_ds/edk/gnu/microblaze/nt64/bin/../lib/gcc/microblaze-xilinx-elf/4.6.2/../../../../microblaze-xilinx-elf/lib/bs/m/le/crt0.o
 .rela.text.sta_disassociate
                0x00000000        0x0 c:/xilinx/14.4/ise_ds/edk/gnu/microblaze/nt64/bin/../lib/gcc/microblaze-xilinx-elf/4.6.2/../../../../microblaze-xilinx-elf/lib/bs/m/le/crt0.o
 .rela.text.get_network_member_list
                0x00000000        0x0 c:/xilinx/14.4/ise_ds/edk/gnu/microblaze/nt64/bin/../lib/gcc/microblaze-xilinx-elf/4.6.2/../../../../microblaze-xilinx-elf/lib/bs/m/le/crt0.o
 .rela.text.wlan_mac_sta_join_init
                0x00000000        0x0 c:/xilinx/14.4/ise_ds/edk/gnu/microblaze/nt64/bin/../lib/gcc/microblaze-xilinx-elf/4.6.2/../../../../microblaze-xilinx-elf/lib/bs/m/le/crt0.o
 .rela.text.wlan_mac_sta_get_join_parameters
                0x00000000        0x0 c:/xilinx/14.4/ise_ds/edk/gnu/microblaze/nt64/bin/../lib/gcc/microblaze-xilinx-elf/4.6.2/../../../../microblaze-xilinx-elf/lib/bs/m/le/crt0.o
 .rela.text.wlan_mac_sta_join_return_to_idle
                0x00000000        0x0 c:/xilinx/14.4/ise_ds/edk/gnu/microblaze/nt64/bin/../lib/gcc/microblaze-xilinx-elf/4.6.2/../../../../microblaze-xilinx-elf/lib/bs/m/le/crt0.o
 .rela.text.wlan_mac_sta_join_bss_attempt_poll
                0x00000000        0x0 c:/xilinx/14.4/ise_ds/edk/gnu/microblaze/nt64/bin/../lib/gcc/microblaze-xilinx-elf/4.6.2/../../../../microblaze-xilinx-elf/lib/bs/m/le/crt0.o
 .rela.text.wlan_mac_sta_successfully_associated
                0x00000000        0x0 c:/xilinx/14.4/ise_ds/edk/gnu/microblaze/nt64/bin/../lib/gcc/microblaze-xilinx-elf/4.6.2/../../../../microblaze-xilinx-elf/lib/bs/m/le/crt0.o
 .rela.text.wlan_mac_sta_successfully_authenticated
                0x00000000        0x0 c:/xilinx/14.4/ise_ds/edk/gnu/microblaze/nt64/bin/../lib/gcc/microblaze-xilinx-elf/4.6.2/../../../../microblaze-xilinx-elf/lib/bs/m/le/crt0.o
 .rela.text.start_join_attempt
                0x00000000        0x0 c:/xilinx/14.4/ise_ds/edk/gnu/microblaze/nt64/bin/../lib/gcc/microblaze-xilinx-elf/4.6.2/../../../../microblaze-xilinx-elf/lib/bs/m/le/crt0.o
 .rela.text.wlan_mac_sta_join_bss_search_poll
                0x00000000        0x0 c:/xilinx/14.4/ise_ds/edk/gnu/microblaze/nt64/bin/../lib/gcc/microblaze-xilinx-elf/4.6.2/../../../../microblaze-xilinx-elf/lib/bs/m/le/crt0.o
 .rela.text.wlan_mac_sta_join
                0x00000000        0x0 c:/xilinx/14.4/ise_ds/edk/gnu/microblaze/nt64/bin/../lib/gcc/microblaze-xilinx-elf/4.6.2/../../../../microblaze-xilinx-elf/lib/bs/m/le/crt0.o
 .rela.text.transmit_join_auth_req
                0x00000000        0x0 c:/xilinx/14.4/ise_ds/edk/gnu/microblaze/nt64/bin/../lib/gcc/microblaze-xilinx-elf/4.6.2/../../../../microblaze-xilinx-elf/lib/bs/m/le/crt0.o
 .rela.text.transmit_join_assoc_req
                0x00000000        0x0 c:/xilinx/14.4/ise_ds/edk/gnu/microblaze/nt64/bin/../lib/gcc/microblaze-xilinx-elf/4.6.2/../../../../microblaze-xilinx-elf/lib/bs/m/le/crt0.o
 .rela.text.print_station_status
                0x00000000        0x0 c:/xilinx/14.4/ise_ds/edk/gnu/microblaze/nt64/bin/../lib/gcc/microblaze-xilinx-elf/4.6.2/../../../../microblaze-xilinx-elf/lib/bs/m/le/crt0.o
 .rela.text.check_join_status
                0x00000000        0x0 c:/xilinx/14.4/ise_ds/edk/gnu/microblaze/nt64/bin/../lib/gcc/microblaze-xilinx-elf/4.6.2/../../../../microblaze-xilinx-elf/lib/bs/m/le/crt0.o
 .rela.text.uart_rx
                0x00000000        0x0 c:/xilinx/14.4/ise_ds/edk/gnu/microblaze/nt64/bin/../lib/gcc/microblaze-xilinx-elf/4.6.2/../../../../microblaze-xilinx-elf/lib/bs/m/le/crt0.o
 .rela.text.print_main_menu
                0x00000000        0x0 c:/xilinx/14.4/ise_ds/edk/gnu/microblaze/nt64/bin/../lib/gcc/microblaze-xilinx-elf/4.6.2/../../../../microblaze-xilinx-elf/lib/bs/m/le/crt0.o
 .rela.data     0x00000000        0x0 c:/xilinx/14.4/ise_ds/edk/gnu/microblaze/nt64/bin/../lib/gcc/microblaze-xilinx-elf/4.6.2/../../../../microblaze-xilinx-elf/lib/bs/m/le/crt0.o

.sdata2         0x000353b8        0x0
                0x000353b8                . = ALIGN (0x8)
                0x000353b8                __sdata2_start = .
 *(.sdata2)
 *(.sdata2.*)
 *(.gnu.linkonce.s2.*)
                0x000353b8                . = ALIGN (0x8)
                0x000353b8                __sdata2_end = .

.sbss2          0x000353b8        0x0
                0x000353b8                __sbss2_start = .
 *(.sbss2)
 *(.sbss2.*)
 *(.gnu.linkonce.sb2.*)
                0x000353b8                __sbss2_end = .

.data           0x000353b8      0x7a5
                0x000353b8                . = ALIGN (0x4)
                0x000353b8                __data_start = .
 *(.data)
 .data          0x000353b8       0x4c ../../wlan_bsp_cpu_high/mb_high/lib\libxil.a(hw_exception_handler.o)
                0x000353c4                MB_ExceptionVectorTable
 .data          0x00035404        0x8 ../../wlan_bsp_cpu_high/mb_high/lib\libxil.a(microblaze_interrupts_g.o)
                0x00035404                MB_InterruptVectorTable
 .data          0x0003540c       0x68 ../../wlan_bsp_cpu_high/mb_high/lib\libxil.a(xintc_g.o)
                0x0003540c                XIntc_ConfigTable
 .data          0x00035474        0x8 ../../wlan_bsp_cpu_high/mb_high/lib\libxil.a(xtmrctr_g.o)
                0x00035474                XTmrCtr_ConfigTable
 .data          0x0003547c        0x2 ../../wlan_bsp_cpu_high/mb_high/lib\libxil.a(xtmrctr_l.o)
                0x0003547c                XTmrCtr_Offsets
 *fill*         0x0003547e        0x2 00
 .data          0x00035480        0x4 ../../wlan_bsp_cpu_high/mb_high/lib\libxil.a(xbasic_types.o)
                0x00035480                XWaitInAssert
 .data          0x00035484        0x4 ../../wlan_bsp_cpu_high/mb_high/lib\libxil.a(xil_assert.o)
                0x00035484                Xil_AssertWait
 .data          0x00035488       0x18 ../../wlan_bsp_cpu_high/mb_high/lib\libxil.a(xaxicdma_g.o)
                0x00035488                XAxiCdma_ConfigTable
 .data          0x000354a0       0x60 ../../wlan_bsp_cpu_high/mb_high/lib\libxil.a(xaxidma_g.o)
                0x000354a0                XAxiDma_ConfigTable
 .data          0x00035500       0x48 ../../wlan_bsp_cpu_high/mb_high/lib\libxil.a(xaxiethernet_g.o)
                0x00035500                XAxiEthernet_ConfigTable
 .data          0x00035548       0x10 ../../wlan_bsp_cpu_high/mb_high/lib\libxil.a(xgpio_g.o)
                0x00035548                XGpio_ConfigTable
 .data          0x00035558       0x10 ../../wlan_bsp_cpu_high/mb_high/lib\libxil.a(xuartlite_g.o)
                0x00035558                XUartLite_ConfigTable
 .data          0x00035568        0xc ../../wlan_bsp_cpu_high/mb_high/lib\libxil.a(xmbox_g.o)
                0x00035568                XMbox_ConfigTable
 .data          0x00035574       0x10 ../../wlan_bsp_cpu_high/mb_high/lib\libxil.a(xmutex_g.o)
                0x00035574                XMutex_ConfigTable
 .data          0x00035584        0x4 ../../wlan_bsp_cpu_high/mb_high/lib\libc.a(lib_a-ctype_.o)
                0x00035584                __ctype_ptr__
 .data          0x00035588       0xf4 ../../wlan_bsp_cpu_high/mb_high/lib\libc.a(lib_a-impure.o)
                0x00035588                _impure_ptr
 .data          0x0003567c      0x410 ../../wlan_bsp_cpu_high/mb_high/lib\libc.a(lib_a-mallocr.o)
                0x0003567c                __malloc_sbrk_base
                0x00035680                __malloc_trim_threshold
                0x00035684                __malloc_av_
 .data          0x00035a8c       0x7c ../../wlan_bsp_cpu_high/mb_high/lib\libc.a(lib_a-locale.o)
                0x00035a8c                __mb_cur_max
 .data          0x00035b08        0x4 ../../wlan_bsp_cpu_high/mb_high/lib\libc.a(lib_a-wctomb_r.o)
                0x00035b08                __wctomb
 *(.data.*)
 .data.application_role.2473
                0x00035b0c        0x4 ./wlan_platform_high/w3_high.o
 .data.print_type_queue
                0x00035b10        0x4 ./wlan_mac_high_framework/wlan_exp_common.o
                0x00035b10                print_type_queue
 .data.print_type_ltg
                0x00035b14        0x4 ./wlan_mac_high_framework/wlan_exp_common.o
                0x00035b14                print_type_ltg
 .data.print_type_counts
                0x00035b18        0x4 ./wlan_mac_high_framework/wlan_exp_common.o
                0x00035b18                print_type_counts
 .data.print_type_event_log
                0x00035b1c        0x4 ./wlan_mac_high_framework/wlan_exp_common.o
                0x00035b1c                print_type_event_log
 .data.print_type_transport
                0x00035b20        0x4 ./wlan_mac_high_framework/wlan_exp_common.o
                0x00035b20                print_type_transport
 .data.print_type_node
                0x00035b24        0x4 ./wlan_mac_high_framework/wlan_exp_common.o
                0x00035b24                print_type_node
 .data.wlan_exp_print_level
                0x00035b28        0x1 ./wlan_mac_high_framework/wlan_exp_common.o
                0x00035b28                wlan_exp_print_level
 *fill*         0x00035b29        0x3 00
 .data.mango_range_compare
                0x00035b2c        0x6 ./wlan_mac_high_framework/wlan_mac_addr_filter.o
 *fill*         0x00035b32        0x2 00
 .data.mango_range_mask
                0x00035b34        0x6 ./wlan_mac_high_framework/wlan_mac_addr_filter.o
 *fill*         0x00035b3a        0x2 00
 .data.access_point_ssid
                0x00035b3c       0x21 ./src/wlan_mac_sta.o
 *(.gnu.linkonce.d.*)
                0x00035b5d                __data_end = .

.got
 *(.got)

.got1
 *(.got1)

.got2
 *(.got2)

.eh_frame       0x00035b60        0x0
 *(.eh_frame)
 .eh_frame      0x00035b60        0x0 c:/xilinx/14.4/ise_ds/edk/gnu/microblaze/nt64/bin/../lib/gcc/microblaze-xilinx-elf/4.6.2/bs/m/le/crtbegin.o

.jcr            0x00035b60        0x0
 *(.jcr)
 .jcr           0x00035b60        0x0 c:/xilinx/14.4/ise_ds/edk/gnu/microblaze/nt64/bin/../lib/gcc/microblaze-xilinx-elf/4.6.2/bs/m/le/crtbegin.o

.gcc_except_table
 *(.gcc_except_table)

.sdata          0x00035b5d       0x13
                0x00035b60                . = ALIGN (0x8)
 *fill*         0x00035b5d        0x3 00
                0x00035b60                __sdata_start = .
 *(.sdata)
 *(.sdata.*)
 *(.gnu.linkonce.s.*)
                0x00035b70                . = (. + 0x10)
 *fill*         0x00035b60       0x10 00
                0x00035b70                __sdata_end = .

.sbss           0x00035b70        0x0
                0x00035b70                . = ALIGN (0x4)
                0x00035b70                __sbss_start = .
 *(.sbss)
 *(.sbss.*)
 *(.gnu.linkonce.sb.*)
                0x00035b70                . = ALIGN (0x8)
                0x00035b70                __sbss_end = .

.tdata          0x00035b70        0x0
                0x00035b70                __tdata_start = .
 *(.tdata)
 *(.tdata.*)
 *(.gnu.linkonce.td.*)
                0x00035b70                __tdata_end = .

.tbss           0x00035b70        0x0
                0x00035b70                __tbss_start = .
 *(.tbss)
 *(.tbss.*)
 *(.gnu.linkonce.tb.*)
                0x00035b70                __tbss_end = .

.bss            0x00035b70     0x18d0
                0x00035b70                . = ALIGN (0x4)
                0x00035b70                __bss_start = .
 *(.bss)
 .bss           0x00035b70       0x20 c:/xilinx/14.4/ise_ds/edk/gnu/microblaze/nt64/bin/../lib/gcc/microblaze-xilinx-elf/4.6.2/bs/m/le/crtbegin.o
 .bss           0x00035b90        0x4 ../../wlan_bsp_cpu_high/mb_high/lib\libxil.a(xbasic_types.o)
 .bss           0x00035b94        0x4 ../../wlan_bsp_cpu_high/mb_high/lib\libxil.a(xil_assert.o)
 .bss           0x00035b98       0x34 ../../wlan_bsp_cpu_high/mb_high/lib\libc.a(lib_a-mallocr.o)
                0x00035b98                __malloc_current_mallinfo
                0x00035bc0                __malloc_max_total_mem
                0x00035bc4                __malloc_max_sbrked_mem
                0x00035bc8                __malloc_top_pad
 .bss           0x00035bcc        0x4 ../../wlan_bsp_cpu_high/mb_high/lib\libxil.a(sbrk.o)
 *(.bss.*)
 .bss.eth_dma_instance
                0x00035bd0      0x67c ./wlan_platform_high/w3_eth.o
 .bss.bd_set_to_process_ptr
                0x0003624c        0x4 ./wlan_platform_high/w3_eth.o
 .bss.bd_set_count
                0x00036250        0x4 ./wlan_platform_high/w3_eth.o
 .bss.rx_schedule_id
                0x00036254        0x4 ./wlan_platform_high/w3_eth.o
 .bss.rx_schedule_dl_entry
                0x00036258        0x4 ./wlan_platform_high/w3_eth.o
 .bss.gl_eth_tx_bd_mem_base
                0x0003625c        0x4 ./wlan_platform_high/w3_eth.o
 .bss.gl_eth_tx_bd_mem_size
                0x00036260        0x4 ./wlan_platform_high/w3_eth.o
 .bss.gl_eth_tx_bd_mem_high
                0x00036264        0x4 ./wlan_platform_high/w3_eth.o
 .bss.gl_eth_rx_bd_mem_base
                0x00036268        0x4 ./wlan_platform_high/w3_eth.o
 .bss.gl_eth_rx_bd_mem_size
                0x0003626c        0x4 ./wlan_platform_high/w3_eth.o
 .bss.gl_eth_rx_bd_mem_high
                0x00036270        0x4 ./wlan_platform_high/w3_eth.o
 .bss.num_tx_bd
                0x00036274        0x4 ./wlan_platform_high/w3_eth.o
 .bss.num_rx_bd
                0x00036278        0x4 ./wlan_platform_high/w3_eth.o
 .bss.irq_status
                0x0003627c        0x4 ./wlan_platform_high/w3_eth.o
 .bss.gl_userio_state
                0x00036280        0x4 ./wlan_platform_high/w3_high_userio.o
 .bss.Gpio_userio
                0x00036284       0x10 ./wlan_platform_high/w3_high_userio.o
 .bss.UartLite  0x00036294       0x4c ./wlan_platform_high/w3_uart.o
 .bss.uart_rx_buffer
                0x000362e0        0x1 ./wlan_platform_high/w3_uart.o
 *fill*         0x000362e1        0x3 00
 .bss.wlan_exp_process_node_cmd_callback
                0x000362e4        0x4 ./wlan_mac_high_framework/wlan_exp_node.o
 .bss.node_parameters
                0x000362e8       0xa8 ./wlan_mac_high_framework/wlan_exp_node.o
 .bss.eth_devices
                0x00036390       0xb8 ./wlan_mac_high_framework/wlan_exp_transport.o
 .bss.transport_parameters
                0x00036448       0x90 ./wlan_mac_high_framework/wlan_exp_transport.o
 .bss.log_entry_en_mask
                0x000364d8        0x1 ./wlan_mac_high_framework/wlan_mac_entries.o
 *fill*         0x000364d9        0x3 00
 .bss.system_time_id
                0x000364dc        0x4 ./wlan_mac_high_framework/wlan_mac_entries.o
 .bss.eth_rx_callback
                0x000364e0        0x4 ./wlan_mac_high_framework/wlan_mac_eth_util.o
 .bss.gl_portal_en
                0x000364e4        0x1 ./wlan_mac_high_framework/wlan_mac_eth_util.o
 *fill*         0x000364e5        0x3 00
 .bss.eth_encap_mode
                0x000364e8        0x4 ./wlan_mac_high_framework/wlan_mac_eth_util.o
 .bss.eth_sta_mac_addr
                0x000364ec        0x6 ./wlan_mac_high_framework/wlan_mac_eth_util.o
 .bss.allocation_mutex
                0x000364f2        0x1 ./wlan_mac_high_framework/wlan_mac_event_log.o
 *fill*         0x000364f3        0x1 00
 .bss.log_count
                0x000364f4        0x2 ./wlan_mac_high_framework/wlan_mac_event_log.o
 .bss.log_full  0x000364f6        0x1 ./wlan_mac_high_framework/wlan_mac_event_log.o
 .bss.log_empty
                0x000364f7        0x1 ./wlan_mac_high_framework/wlan_mac_event_log.o
 .bss.wrap_buffer
                0x000364f8        0x2 ./wlan_mac_high_framework/wlan_mac_event_log.o
 .bss.event_logging_enabled
                0x000364fa        0x1 ./wlan_mac_high_framework/wlan_mac_event_log.o
 .bss.log_wrap_enabled
                0x000364fb        0x1 ./wlan_mac_high_framework/wlan_mac_event_log.o
 .bss.log_num_wraps
                0x000364fc        0x4 ./wlan_mac_high_framework/wlan_mac_event_log.o
 .bss.log_next_address
                0x00036500        0x4 ./wlan_mac_high_framework/wlan_mac_event_log.o
 .bss.log_oldest_address
                0x00036504        0x4 ./wlan_mac_high_framework/wlan_mac_event_log.o
 .bss.log_size  0x00036508        0x4 ./wlan_mac_high_framework/wlan_mac_event_log.o
 .bss.log_max_address
                0x0003650c        0x4 ./wlan_mac_high_framework/wlan_mac_event_log.o
 .bss.log_soft_end_address
                0x00036510        0x4 ./wlan_mac_high_framework/wlan_mac_event_log.o
 .bss.log_start_address
                0x00036514        0x4 ./wlan_mac_high_framework/wlan_mac_event_log.o
 .bss.num_realloc
                0x00036518        0x4 ./wlan_mac_high_framework/wlan_mac_high.o
 .bss.num_free  0x0003651c        0x4 ./wlan_mac_high_framework/wlan_mac_high.o
 .bss.num_malloc
                0x00036520        0x4 ./wlan_mac_high_framework/wlan_mac_high.o
 .bss.interrupt_state
                0x00036524        0x4 ./wlan_mac_high_framework/wlan_mac_high.o
 .bss.cpu_low_reg_read_buffer_status
                0x00036528        0x1 ./wlan_mac_high_framework/wlan_mac_high.o
 *fill*         0x00036529        0x3 00
 .bss.cpu_low_status
                0x0003652c        0x4 ./wlan_mac_high_framework/wlan_mac_high.o
 .bss.cpu_low_reg_read_buffer
                0x00036530        0x4 ./wlan_mac_high_framework/wlan_mac_high.o
 .bss.xmbox_ptr
                0x00036534        0x4 ./wlan_mac_high_framework/wlan_mac_high_mailbox_util.o
 .bss.ipc_msg_from_low
                0x00036538        0x8 ./wlan_mac_high_framework/wlan_mac_high_mailbox_util.o
 .bss.ipc_msg_from_low_payload
                0x00036540       0x58 ./wlan_mac_high_framework/wlan_mac_high_mailbox_util.o
 .bss.platform_common_dev_info
                0x00036598       0x20 ./wlan_mac_high_framework/wlan_mac_high_mailbox_util.o
 .bss.platform_high_dev_info
                0x000365b8       0x44 ./wlan_mac_high_framework/wlan_mac_high_mailbox_util.o
 .bss.intc_ptr  0x000365fc        0x4 ./wlan_mac_high_framework/wlan_mac_high_mailbox_util.o
 .bss.schedule_running
                0x00036600        0x1 ./wlan_mac_high_framework/wlan_mac_ltg.o
 *fill*         0x00036601        0x3 00
 .bss.schedule_id
                0x00036604        0x4 ./wlan_mac_high_framework/wlan_mac_ltg.o
 .bss.num_ltg_checks
                0x00036608        0x8 ./wlan_mac_high_framework/wlan_mac_ltg.o
 .bss.tg_list   0x00036610        0xc ./wlan_mac_high_framework/wlan_mac_ltg.o
 .bss.ltg_callback
                0x0003661c        0x4 ./wlan_mac_high_framework/wlan_mac_ltg.o
 .bss.id.3594   0x00036620        0x4 ./wlan_mac_high_framework/wlan_mac_ltg.o
 .bss.network_info_free
                0x00036624        0xc ./wlan_mac_high_framework/wlan_mac_network_info.o
 .bss.network_info_list
                0x00036630        0xc ./wlan_mac_high_framework/wlan_mac_network_info.o
 .bss.network_info_matching_ssid_list
                0x0003663c        0xc ./wlan_mac_high_framework/wlan_mac_network_info.o
 .bss.total_tx_queue_entries
                0x00036648        0x4 ./wlan_mac_high_framework/wlan_mac_queue.o
 .bss.tx_queues
                0x0003664c        0x4 ./wlan_mac_high_framework/wlan_mac_queue.o
 .bss.num_tx_queues
                0x00036650        0x2 ./wlan_mac_high_framework/wlan_mac_queue.o
 *fill*         0x00036652        0x2 00
 .bss.queue_state_change_callback
                0x00036654        0x4 ./wlan_mac_high_framework/wlan_mac_queue.o
 .bss.free_queue
                0x00036658        0xc ./wlan_mac_high_framework/wlan_mac_queue.o
 .bss.scan_sched_id
                0x00036664        0x4 ./wlan_mac_high_framework/wlan_mac_scan.o
 .bss.probe_sched_id
                0x00036668        0x4 ./wlan_mac_high_framework/wlan_mac_scan.o
 .bss.scan_state
                0x0003666c        0x4 ./wlan_mac_high_framework/wlan_mac_scan.o
 .bss.num_full_scans
                0x00036670        0x4 ./wlan_mac_high_framework/wlan_mac_scan.o
 .bss.curr_scan_chan_idx
                0x00036674        0x1 ./wlan_mac_high_framework/wlan_mac_scan.o
 .bss.debug_print.2408
                0x00036675        0x1 ./wlan_mac_high_framework/wlan_mac_schedule.o
 *fill*         0x00036676        0x2 00
 .bss.schedule_count
                0x00036678        0x4 ./wlan_mac_high_framework/wlan_mac_schedule.o
 .bss.wlan_sched_coarse
                0x0003667c       0x10 ./wlan_mac_high_framework/wlan_mac_schedule.o
 .bss.wlan_sched_fine
                0x0003668c       0x10 ./wlan_mac_high_framework/wlan_mac_schedule.o
 .bss.disabled_list
                0x0003669c        0xc ./wlan_mac_high_framework/wlan_mac_schedule.o
 .bss.timer_instance
                0x000366a8       0x14 ./wlan_mac_high_framework/wlan_mac_schedule.o
 .bss.station_info_free
                0x000366bc        0xc ./wlan_mac_high_framework/wlan_mac_station_info.o
 .bss.station_info_list
                0x000366c8        0xc ./wlan_mac_high_framework/wlan_mac_station_info.o
 .bss.default_tx_params
                0x000366d4       0x20 ./wlan_mac_high_framework/wlan_mac_station_info.o
 .bss.ipv4_id_counter
                0x000366f4        0x2 ./wlan_mac_high_framework/wlan_exp_ip_udp/wlan_exp_ip_udp_ip_udp.o
                0x000366f4                ipv4_id_counter
 *fill*         0x000366f6        0x2 00
 .bss.mac_hw_info
                0x000366f8       0x1c ./wlan_mac_common_framework/wlan_mac_common.o
 .bss.platform_common_dev_info
                0x00036714       0x20 ./wlan_mac_common_framework/wlan_mac_mailbox_util.o
 .bss.ipc_mailbox
                0x00036734       0x10 ./wlan_mac_common_framework/wlan_mac_mailbox_util.o
 .bss.platform_common_dev_info
                0x00036744       0x20 ./wlan_mac_common_framework/wlan_mac_pkt_buf_util.o
 .bss.pkt_buf_mutex
                0x00036764       0x14 ./wlan_mac_common_framework/wlan_mac_pkt_buf_util.o
 .bss.max_queue_size
                0x00036778        0x4 ./src/wlan_mac_sta.o
 .bss.gl_beacon_txrx_config
                0x0003677c       0x14 ./src/wlan_mac_sta.o
 .bss.wlan_mac_addr
                0x00036790        0x6 ./src/wlan_mac_sta.o
 *fill*         0x00036796        0x2 00
 .bss.queue_index.4693
                0x00036798        0x4 ./src/wlan_mac_sta.o
 .bss.join_success_callback
                0x0003679c        0x4 ./src/wlan_mac_sta_join.o
 .bss.join_state
                0x000367a0        0x4 ./src/wlan_mac_sta_join.o
 .bss.authentication_state
                0x000367a4        0x4 ./src/wlan_mac_sta_join.o
 .bss.attempt_network_info
                0x000367a8        0x4 ./src/wlan_mac_sta_join.o
 .bss.search_sched_id
                0x000367ac        0x4 ./src/wlan_mac_sta_join.o
 .bss.attempt_sched_id
                0x000367b0        0x4 ./src/wlan_mac_sta_join.o
 .bss.print_scheduled
                0x000367b4        0x1 ./src/wlan_mac_sta_uart_menu.o
 *fill*         0x000367b5        0x3 00
 .bss.check_join_status_id
                0x000367b8        0x4 ./src/wlan_mac_sta_uart_menu.o
 .bss.schedule_id
                0x000367bc        0x4 ./src/wlan_mac_sta_uart_menu.o
 .bss.uart_mode
                0x000367c0        0x1 ./src/wlan_mac_sta_uart_menu.o
 *fill*         0x000367c1        0x3 00
 .bss.curr_char
                0x000367c4        0x1 ./src/wlan_mac_sta_uart_menu.o
 *fill*         0x000367c5        0x3 00
 .bss.text_entry
                0x000367c8       0x21 ./src/wlan_mac_sta_uart_menu.o
 *(.gnu.linkonce.b.*)
 *(COMMON)
 *fill*         0x000367e9        0x3 00
 COMMON         0x000367ec       0x78 ./wlan_mac_high_framework/wlan_exp_node.o
                0x000367ec                wlan_exp_purge_all_data_tx_queue_callback
                0x000367f0                wlan_exp_process_config_bss_callback
                0x000367f4                wlan_exp_active_network_info_getter_callback
                0x000367f8                wlan_exp_beacon_ts_update_mode_callback
                0x000367fc                node_info
                0x00036860                wlan_exp_process_user_cmd_callback
 COMMON         0x00036864        0x4 ./wlan_mac_high_framework/wlan_exp_transport.o
                0x00036864                process_hton_msg_callback
 COMMON         0x00036868        0xc ./wlan_mac_high_framework/wlan_mac_addr_filter.o
                0x00036868                addr_filter
 COMMON         0x00036874        0x4 ./wlan_mac_high_framework/wlan_mac_entries.o
                0x00036874                mac_payload_log_len
 COMMON         0x00036878      0x235 ./wlan_mac_high_framework/wlan_mac_high.o
                0x00036878                press_pb_2_callback
                0x0003687c                low_param_channel
                0x00036880                cdma_inst
                0x000369e4                mpdu_tx_high_done_callback
                0x000369e8                release_pb_0_callback
                0x000369ec                beacon_tx_done_callback
                0x000369f0                low_param_random_seed
                0x000369f4                low_param_rx_ant_mode
                0x000369f8                release_pb_1_callback
                0x000369fc                cpu_low_reboot_callback
                0x00036a00                tx_poll_callback
                0x00036a04                low_param_dsss_en
                0x00036a08                hw_info
                0x00036a0c                low_param_rx_filter
                0x00036a10                press_pb_0_callback
                0x00036a14                release_pb_2_callback
                0x00036a18                uart_callback
                0x00036a1c                platform_common_dev_info
                0x00036a3c                mpdu_rx_callback
                0x00036a40                mpdu_tx_dequeue_callback
                0x00036a44                dram_present
                0x00036a48                InterruptController
                0x00036a5c                press_pb_1_callback
                0x00036a60                mpdu_tx_low_done_callback
                0x00036a64                low_param_radio_tx_pow
                0x00036a68                platform_high_dev_info
                0x00036aac                low_param_tx_ctrl_pow
 *fill*         0x00036aad        0x3 00
 COMMON         0x00036ab0       0x1c ./wlan_mac_high_framework/wlan_mac_scan.o
                0x00036ab0                tx_probe_request_callback
                0x00036ab4                gl_scan_parameters
                0x00036ac8                scan_state_change_callback
 COMMON         0x00036acc      0x794 ./wlan_mac_high_framework/wlan_exp_ip_udp/wlan_exp_ip_udp_config.o
                0x00036acc                ETH_1_instance
                0x00036b00                ETH_1_recv_buffers
                0x00036b54                eth_device
                0x00036be4                ETH_1_dma_instance
 COMMON         0x00037260        0x8 ./wlan_mac_high_framework/wlan_exp_ip_udp/wlan_exp_ip_udp_eth.o
                0x00037260                interrupt_disable_callback
                0x00037264                interrupt_enable_callback
 COMMON         0x00037268      0x17c ./wlan_mac_high_framework/wlan_exp_ip_udp/wlan_exp_ip_udp_init.o
                0x00037268                ETH_send_buffers
                0x000372a0                ETH_sockets
                0x00037318                ETH_allocated_send_buffers
                0x0003731c                ETH_arp_cache
 COMMON         0x000373e4       0x19 ./src/wlan_mac_sta.o
                0x000373e4                pause_data_queue
                0x000373e8                tx_header_common
                0x000373f8                active_network_info
                0x000373fc                my_aid
 *fill*         0x000373fd        0x3 00
 COMMON         0x00037400       0x10 ./src/wlan_mac_sta_join.o
                0x00037400                scan_ssid_save
                0x00037404                gl_join_parameters
 COMMON         0x00037410       0x28 ../../wlan_bsp_cpu_high/mb_high/lib\libxil.a(xintc.o)
                0x00037410                XIntc_BitPosMask
 COMMON         0x00037438        0x4 ../../wlan_bsp_cpu_high/mb_high/lib\libxil.a(xil_assert.o)
                0x00037438                Xil_AssertStatus
 COMMON         0x0003743c        0x4 ../../wlan_bsp_cpu_high/mb_high/lib\libc.a(lib_a-reent.o)
                0x0003743c                errno
                0x00037440                . = ALIGN (0x4)
                0x00037440                __bss_end = .
                0x00035b68                _SDA_BASE_ = (__sdata_start + ((__sbss_end - __sdata_start) / 0x2))
                0x000353b8                _SDA2_BASE_ = (__sdata2_start + ((__sbss2_end - __sdata2_start) / 0x2))

.heap           0x00037440     0x2000
                0x00037440                . = ALIGN (0x8)
                0x00037440                _heap = .
                0x00037440                _heap_start = .
                0x00039440                . = (. + _HEAP_SIZE)
 *fill*         0x00037440     0x2000 00
                0x00039440                _heap_end = .

.stack          0x00039440     0x1000
                0x00039440                _stack_end = .
                0x0003a440                . = (. + _STACK_SIZE)
 *fill*         0x00039440     0x1000 00
                0x0003a440                . = ALIGN (0x8)
                0x0003a440                _stack = .
                0x0003a440                __stack = _stack
                0x0003a440                _end = .
LOAD ./wlan_platform_high/w3_eth.o
LOAD ./wlan_platform_high/w3_high.o
LOAD ./wlan_platform_high/w3_high_userio.o
LOAD ./wlan_platform_high/w3_uart.o
LOAD ./wlan_platform_common/w3_common.o
LOAD ./wlan_platform_common/w3_mac_time_util.o
LOAD ./wlan_platform_common/w3_sysmon_util.o
LOAD ./wlan_platform_common/w3_userio_util.o
LOAD ./wlan_mac_high_framework/wlan_exp_common.o
LOAD ./wlan_mac_high_framework/wlan_exp_node.o
LOAD ./wlan_mac_high_framework/wlan_exp_transport.o
LOAD ./wlan_mac_high_framework/wlan_exp_user.o
LOAD ./wlan_mac_high_framework/wlan_mac_addr_filter.o
LOAD ./wlan_mac_high_framework/wlan_mac_entries.o
LOAD ./wlan_mac_high_framework/wlan_mac_eth_util.o
LOAD ./wlan_mac_high_framework/wlan_mac_event_log.o
LOAD ./wlan_mac_high_framework/wlan_mac_high.o
LOAD ./wlan_mac_high_framework/wlan_mac_high_mailbox_util.o
LOAD ./wlan_mac_high_framework/wlan_mac_ltg.o
LOAD ./wlan_mac_high_framework/wlan_mac_network_info.o
LOAD ./wlan_mac_high_framework/wlan_mac_packet_types.o
LOAD ./wlan_mac_high_framework/wlan_mac_queue.o
LOAD ./wlan_mac_high_framework/wlan_mac_scan.o
LOAD ./wlan_mac_high_framework/wlan_mac_schedule.o
LOAD ./wlan_mac_high_framework/wlan_mac_station_info.o
LOAD ./wlan_mac_high_framework/wlan_exp_ip_udp/wlan_exp_ip_udp_config.o
LOAD ./wlan_mac_high_framework/wlan_exp_ip_udp/wlan_exp_ip_udp_eth.o
LOAD ./wlan_mac_high_framework/wlan_exp_ip_udp/wlan_exp_ip_udp_init.o
LOAD ./wlan_mac_high_framework/wlan_exp_ip_udp/wlan_exp_ip_udp_ip_udp.o
LOAD ./wlan_mac_high_framework/wlan_exp_ip_udp/wlan_exp_ip_udp_socket.o
LOAD ./wlan_mac_common_framework/wlan_mac_common.o
LOAD ./wlan_mac_common_framework/wlan_mac_dl_list.o
LOAD ./wlan_mac_common_framework/wlan_mac_mailbox_util.o
LOAD ./wlan_mac_common_framework/wlan_mac_pkt_buf_util.o
LOAD ./src/wlan_exp_node_sta.o
LOAD ./src/wlan_mac_sta.o
LOAD ./src/wlan_mac_sta_join.o
LOAD ./src/wlan_mac_sta_uart_menu.o
START GROUP
LOAD ../../wlan_bsp_cpu_high/mb_high/lib\libxil.a
LOAD c:/xilinx/14.4/ise_ds/edk/gnu/microblaze/nt64/bin/../lib/gcc/microblaze-xilinx-elf/4.6.2/bs/m/le\libgcc.a
LOAD ../../wlan_bsp_cpu_high/mb_high/lib\libc.a
END GROUP
LOAD c:/xilinx/14.4/ise_ds/edk/gnu/microblaze/nt64/bin/../lib/gcc/microblaze-xilinx-elf/4.6.2/bs/m/le\libgcc.a
START GROUP
LOAD ../../wlan_bsp_cpu_high/mb_high/lib\libxil.a
LOAD ../../wlan_bsp_cpu_high/mb_high/lib\libc.a
LOAD ../../wlan_bsp_cpu_high/mb_high/lib\libm.a
END GROUP
LOAD c:/xilinx/14.4/ise_ds/edk/gnu/microblaze/nt64/bin/../lib/gcc/microblaze-xilinx-elf/4.6.2/bs/m/le\libgcc.a
LOAD c:/xilinx/14.4/ise_ds/edk/gnu/microblaze/nt64/bin/../lib/gcc/microblaze-xilinx-elf/4.6.2/bs/m/le/crtend.o
LOAD c:/xilinx/14.4/ise_ds/edk/gnu/microblaze/nt64/bin/../lib/gcc/microblaze-xilinx-elf/4.6.2/bs/m/le/crtn.o
OUTPUT(wlan_mac_high_sta.elf elf32-microblazeel)

.debug_line     0x00000000     0xbefc
 .debug_line    0x00000000       0xaa c:/xilinx/14.4/ise_ds/edk/gnu/microblaze/nt64/bin/../lib/gcc/microblaze-xilinx-elf/4.6.2/../../../../microblaze-xilinx-elf/lib/bs/m/le/crt0.o
 .debug_line    0x000000aa       0x75 c:/xilinx/14.4/ise_ds/edk/gnu/microblaze/nt64/bin/../lib/gcc/microblaze-xilinx-elf/4.6.2/bs/m/le/crti.o
 .debug_line    0x0000011f       0x86 c:/xilinx/14.4/ise_ds/edk/gnu/microblaze/nt64/bin/../lib/gcc/microblaze-xilinx-elf/4.6.2/../../../../microblaze-xilinx-elf/lib/bs/m/le/crtinit.o
 .debug_line    0x000001a5      0x565 ../../wlan_bsp_cpu_high/mb_high/lib\libxil.a(xil_printf.o)
 .debug_line    0x0000070a       0x70 ../../wlan_bsp_cpu_high/mb_high/lib\libxil.a(_exception_handler.o)
 .debug_line    0x0000077a       0x6c ../../wlan_bsp_cpu_high/mb_high/lib\libxil.a(_program_clean.o)
 .debug_line    0x000007e6       0x6b ../../wlan_bsp_cpu_high/mb_high/lib\libxil.a(_program_init.o)
 .debug_line    0x00000851      0x10d ../../wlan_bsp_cpu_high/mb_high/lib\libxil.a(hw_exception_handler.o)
 .debug_line    0x0000095e       0x52 ../../wlan_bsp_cpu_high/mb_high/lib\libxil.a(microblaze_enable_exceptions.o)
 .debug_line    0x000009b0       0xd6 ../../wlan_bsp_cpu_high/mb_high/lib\libxil.a(microblaze_interrupt_handler.o)
 .debug_line    0x00000a86       0x81 ../../wlan_bsp_cpu_high/mb_high/lib\libxil.a(microblaze_interrupts_g.o)
 .debug_line    0x00000b07       0x59 ../../wlan_bsp_cpu_high/mb_high/lib\libxil.a(outbyte.o)
 .debug_line    0x00000b60       0x7b ../../wlan_bsp_cpu_high/mb_high/lib\libxil.a(xil_cache.o)
 .debug_line    0x00000bdb      0x129 ../../wlan_bsp_cpu_high/mb_high/lib\libxil.a(xil_exception.o)
 .debug_line    0x00000d04      0x18a ../../wlan_bsp_cpu_high/mb_high/lib\libxil.a(xil_io.o)
 .debug_line    0x00000e8e      0x62a ../../wlan_bsp_cpu_high/mb_high/lib\libxil.a(xaxicdma.o)
 .debug_line    0x000014b8      0xa4b ../../wlan_bsp_cpu_high/mb_high/lib\libxil.a(xaxicdma_bdring.o)
 .debug_line    0x00001f03      0x214 ../../wlan_bsp_cpu_high/mb_high/lib\libxil.a(xaxicdma_intr.o)
 .debug_line    0x00002117       0x89 ../../wlan_bsp_cpu_high/mb_high/lib\libxil.a(xaxicdma_sinit.o)
 .debug_line    0x000021a0      0x869 ../../wlan_bsp_cpu_high/mb_high/lib\libxil.a(xaxidma.o)
 .debug_line    0x00002a09      0x230 ../../wlan_bsp_cpu_high/mb_high/lib\libxil.a(xaxidma_bd.o)
 .debug_line    0x00002c39      0xbce ../../wlan_bsp_cpu_high/mb_high/lib\libxil.a(xaxidma_bdring.o)
 .debug_line    0x00003807       0x8f ../../wlan_bsp_cpu_high/mb_high/lib\libxil.a(xaxidma_sinit.o)
 .debug_line    0x00003896     0x1180 ../../wlan_bsp_cpu_high/mb_high/lib\libxil.a(xaxiethernet.o)
 .debug_line    0x00004a16       0x91 ../../wlan_bsp_cpu_high/mb_high/lib\libxil.a(xaxiethernet_sinit.o)
 .debug_line    0x00004aa7      0x961 ../../wlan_bsp_cpu_high/mb_high/lib\libxil.a(xintc.o)
 .debug_line    0x00005408       0x7b ../../wlan_bsp_cpu_high/mb_high/lib\libxil.a(xintc_g.o)
 .debug_line    0x00005483      0x261 ../../wlan_bsp_cpu_high/mb_high/lib\libxil.a(xintc_l.o)
 .debug_line    0x000056e4      0x16d ../../wlan_bsp_cpu_high/mb_high/lib\libxil.a(xintc_options.o)
 .debug_line    0x00005851      0x308 ../../wlan_bsp_cpu_high/mb_high/lib\libxil.a(xgpio.o)
 .debug_line    0x00005b59      0x401 ../../wlan_bsp_cpu_high/mb_high/lib\libxil.a(xgpio_intr.o)
 .debug_line    0x00005f5a       0xf6 ../../wlan_bsp_cpu_high/mb_high/lib\libxil.a(xgpio_sinit.o)
 .debug_line    0x00006050      0x584 ../../wlan_bsp_cpu_high/mb_high/lib\libxil.a(xtmrctr.o)
 .debug_line    0x000065d4       0x60 ../../wlan_bsp_cpu_high/mb_high/lib\libxil.a(xtmrctr_g.o)
 .debug_line    0x00006634      0x1ae ../../wlan_bsp_cpu_high/mb_high/lib\libxil.a(xtmrctr_intr.o)
 .debug_line    0x000067e2       0x53 ../../wlan_bsp_cpu_high/mb_high/lib\libxil.a(xtmrctr_l.o)
 .debug_line    0x00006835      0x214 ../../wlan_bsp_cpu_high/mb_high/lib\libxil.a(xtmrctr_options.o)
 .debug_line    0x00006a49      0x61d ../../wlan_bsp_cpu_high/mb_high/lib\libxil.a(xuartlite.o)
 .debug_line    0x00007066      0x291 ../../wlan_bsp_cpu_high/mb_high/lib\libxil.a(xuartlite_intr.o)
 .debug_line    0x000072f7       0xa5 ../../wlan_bsp_cpu_high/mb_high/lib\libxil.a(xuartlite_l.o)
 .debug_line    0x0000739c       0xf2 ../../wlan_bsp_cpu_high/mb_high/lib\libxil.a(xuartlite_sinit.o)
 .debug_line    0x0000748e      0x194 ../../wlan_bsp_cpu_high/mb_high/lib\libxil.a(xuartlite_stats.o)
 .debug_line    0x00007622      0x9f5 ../../wlan_bsp_cpu_high/mb_high/lib\libxil.a(xmbox.o)
 .debug_line    0x00008017       0x83 ../../wlan_bsp_cpu_high/mb_high/lib\libxil.a(xmbox_sinit.o)
 .debug_line    0x0000809a      0x4b7 ../../wlan_bsp_cpu_high/mb_high/lib\libxil.a(xmutex.o)
 .debug_line    0x00008551       0x85 ../../wlan_bsp_cpu_high/mb_high/lib\libxil.a(xmutex_sinit.o)
 .debug_line    0x000085d6      0x89d ../../wlan_bsp_cpu_high/mb_high/lib\libxil.a(w3_iic_eeprom.o)
 .debug_line    0x00008e73       0x8a ../../wlan_bsp_cpu_high/mb_high/lib\libxil.a(print.o)
 .debug_line    0x00008efd       0xa8 ../../wlan_bsp_cpu_high/mb_high/lib\libxil.a(xbasic_types.o)
 .debug_line    0x00008fa5       0x50 ../../wlan_bsp_cpu_high/mb_high/lib\libxil.a(microblaze_disable_dcache.o)
 .debug_line    0x00008ff5       0x53 ../../wlan_bsp_cpu_high/mb_high/lib\libxil.a(microblaze_disable_exceptions.o)
 .debug_line    0x00009048       0x50 ../../wlan_bsp_cpu_high/mb_high/lib\libxil.a(microblaze_disable_icache.o)
 .debug_line    0x00009098       0x56 ../../wlan_bsp_cpu_high/mb_high/lib\libxil.a(microblaze_disable_interrupts.o)
 .debug_line    0x000090ee       0x55 ../../wlan_bsp_cpu_high/mb_high/lib\libxil.a(microblaze_enable_interrupts.o)
 .debug_line    0x00009143       0x52 ../../wlan_bsp_cpu_high/mb_high/lib\libxil.a(microblaze_flush_dcache.o)
 .debug_line    0x00009195       0x57 ../../wlan_bsp_cpu_high/mb_high/lib\libxil.a(microblaze_invalidate_dcache.o)
 .debug_line    0x000091ec       0x61 ../../wlan_bsp_cpu_high/mb_high/lib\libxil.a(microblaze_invalidate_dcache_range.o)
 .debug_line    0x0000924d       0x57 ../../wlan_bsp_cpu_high/mb_high/lib\libxil.a(microblaze_invalidate_icache.o)
 .debug_line    0x000092a4       0x94 ../../wlan_bsp_cpu_high/mb_high/lib\libxil.a(xil_assert.o)
 .debug_line    0x00009338      0x2a7 ../../wlan_bsp_cpu_high/mb_high/lib\libxil.a(xaxicdma_bd.o)
 .debug_line    0x000095df       0x65 ../../wlan_bsp_cpu_high/mb_high/lib\libxil.a(xaxicdma_g.o)
 .debug_line    0x00009644       0x63 ../../wlan_bsp_cpu_high/mb_high/lib\libxil.a(xaxidma_g.o)
 .debug_line    0x000096a7       0x6d ../../wlan_bsp_cpu_high/mb_high/lib\libxil.a(xaxiethernet_g.o)
 .debug_line    0x00009714       0x5c ../../wlan_bsp_cpu_high/mb_high/lib\libxil.a(xgpio_g.o)
 .debug_line    0x00009770       0x64 ../../wlan_bsp_cpu_high/mb_high/lib\libxil.a(xuartlite_g.o)
 .debug_line    0x000097d4       0x5f ../../wlan_bsp_cpu_high/mb_high/lib\libxil.a(xmbox_g.o)
 .debug_line    0x00009833       0x61 ../../wlan_bsp_cpu_high/mb_high/lib\libxil.a(xmutex_g.o)
 .debug_line    0x00009894       0xa3 c:/xilinx/14.4/ise_ds/edk/gnu/microblaze/nt64/bin/../lib/gcc/microblaze-xilinx-elf/4.6.2/bs/m/le\libgcc.a(_fixunsdfdi.o)
 .debug_line    0x00009937       0xab c:/xilinx/14.4/ise_ds/edk/gnu/microblaze/nt64/bin/../lib/gcc/microblaze-xilinx-elf/4.6.2/bs/m/le\libgcc.a(_floatundidf.o)
 .debug_line    0x000099e2      0x26f c:/xilinx/14.4/ise_ds/edk/gnu/microblaze/nt64/bin/../lib/gcc/microblaze-xilinx-elf/4.6.2/bs/m/le\libgcc.a(_udivdi3.o)
 .debug_line    0x00009c51      0x298 c:/xilinx/14.4/ise_ds/edk/gnu/microblaze/nt64/bin/../lib/gcc/microblaze-xilinx-elf/4.6.2/bs/m/le\libgcc.a(_umoddi3.o)
 .debug_line    0x00009ee9      0x3e6 c:/xilinx/14.4/ise_ds/edk/gnu/microblaze/nt64/bin/../lib/gcc/microblaze-xilinx-elf/4.6.2/bs/m/le\libgcc.a(_addsub_df.o)
 .debug_line    0x0000a2cf      0x3f4 c:/xilinx/14.4/ise_ds/edk/gnu/microblaze/nt64/bin/../lib/gcc/microblaze-xilinx-elf/4.6.2/bs/m/le\libgcc.a(_mul_df.o)
 .debug_line    0x0000a6c3      0x270 c:/xilinx/14.4/ise_ds/edk/gnu/microblaze/nt64/bin/../lib/gcc/microblaze-xilinx-elf/4.6.2/bs/m/le\libgcc.a(_div_df.o)
 .debug_line    0x0000a933       0x7a c:/xilinx/14.4/ise_ds/edk/gnu/microblaze/nt64/bin/../lib/gcc/microblaze-xilinx-elf/4.6.2/bs/m/le\libgcc.a(_thenan_df.o)
 .debug_line    0x0000a9ad      0x18f c:/xilinx/14.4/ise_ds/edk/gnu/microblaze/nt64/bin/../lib/gcc/microblaze-xilinx-elf/4.6.2/bs/m/le\libgcc.a(_usi_to_df.o)
 .debug_line    0x0000ab3c       0x8d c:/xilinx/14.4/ise_ds/edk/gnu/microblaze/nt64/bin/../lib/gcc/microblaze-xilinx-elf/4.6.2/bs/m/le\libgcc.a(modsi3.o)
 .debug_line    0x0000abc9       0x91 c:/xilinx/14.4/ise_ds/edk/gnu/microblaze/nt64/bin/../lib/gcc/microblaze-xilinx-elf/4.6.2/bs/m/le\libgcc.a(udivsi3.o)
 .debug_line    0x0000ac5a       0x95 c:/xilinx/14.4/ise_ds/edk/gnu/microblaze/nt64/bin/../lib/gcc/microblaze-xilinx-elf/4.6.2/bs/m/le\libgcc.a(umodsi3.o)
 .debug_line    0x0000acef       0xab c:/xilinx/14.4/ise_ds/edk/gnu/microblaze/nt64/bin/../lib/gcc/microblaze-xilinx-elf/4.6.2/bs/m/le\libgcc.a(_muldi3.o)
 .debug_line    0x0000ad9a       0x60 c:/xilinx/14.4/ise_ds/edk/gnu/microblaze/nt64/bin/../lib/gcc/microblaze-xilinx-elf/4.6.2/bs/m/le\libgcc.a(_clz.o)
 .debug_line    0x0000adfa       0xd1 c:/xilinx/14.4/ise_ds/edk/gnu/microblaze/nt64/bin/../lib/gcc/microblaze-xilinx-elf/4.6.2/bs/m/le\libgcc.a(_clzsi2.o)
 .debug_line    0x0000aecb       0xbb c:/xilinx/14.4/ise_ds/edk/gnu/microblaze/nt64/bin/../lib/gcc/microblaze-xilinx-elf/4.6.2/bs/m/le\libgcc.a(_fixunsdfsi.o)
 .debug_line    0x0000af86      0x23d c:/xilinx/14.4/ise_ds/edk/gnu/microblaze/nt64/bin/../lib/gcc/microblaze-xilinx-elf/4.6.2/bs/m/le\libgcc.a(_pack_df.o)
 .debug_line    0x0000b1c3      0x1a1 c:/xilinx/14.4/ise_ds/edk/gnu/microblaze/nt64/bin/../lib/gcc/microblaze-xilinx-elf/4.6.2/bs/m/le\libgcc.a(_unpack_df.o)
 .debug_line    0x0000b364       0xcd c:/xilinx/14.4/ise_ds/edk/gnu/microblaze/nt64/bin/../lib/gcc/microblaze-xilinx-elf/4.6.2/bs/m/le\libgcc.a(_ge_df.o)
 .debug_line    0x0000b431      0x123 c:/xilinx/14.4/ise_ds/edk/gnu/microblaze/nt64/bin/../lib/gcc/microblaze-xilinx-elf/4.6.2/bs/m/le\libgcc.a(_df_to_si.o)
 .debug_line    0x0000b554       0xdd c:/xilinx/14.4/ise_ds/edk/gnu/microblaze/nt64/bin/../lib/gcc/microblaze-xilinx-elf/4.6.2/bs/m/le\libgcc.a(_lshrdi3.o)
 .debug_line    0x0000b631       0xdd c:/xilinx/14.4/ise_ds/edk/gnu/microblaze/nt64/bin/../lib/gcc/microblaze-xilinx-elf/4.6.2/bs/m/le\libgcc.a(_ashldi3.o)
 .debug_line    0x0000b70e      0x157 c:/xilinx/14.4/ise_ds/edk/gnu/microblaze/nt64/bin/../lib/gcc/microblaze-xilinx-elf/4.6.2/bs/m/le\libgcc.a(_fpcmp_parts_df.o)
 .debug_line    0x0000b865       0xca ../../wlan_bsp_cpu_high/mb_high/lib\libxil.a(fstat.o)
 .debug_line    0x0000b92f       0x6b ../../wlan_bsp_cpu_high/mb_high/lib\libxil.a(isatty.o)
 .debug_line    0x0000b99a       0xb8 ../../wlan_bsp_cpu_high/mb_high/lib\libxil.a(lseek.o)
 .debug_line    0x0000ba52       0xb3 ../../wlan_bsp_cpu_high/mb_high/lib\libxil.a(sbrk.o)
 .debug_line    0x0000bb05       0xb2 ../../wlan_bsp_cpu_high/mb_high/lib\libxil.a(write.o)
 .debug_line    0x0000bbb7       0xb1 ../../wlan_bsp_cpu_high/mb_high/lib\libxil.a(read.o)
 .debug_line    0x0000bc68       0x6a ../../wlan_bsp_cpu_high/mb_high/lib\libxil.a(close.o)
 .debug_line    0x0000bcd2      0x15f ../../wlan_bsp_cpu_high/mb_high/lib\libxil.a(errno.o)
 .debug_line    0x0000be31       0x58 ../../wlan_bsp_cpu_high/mb_high/lib\libxil.a(inbyte.o)
 .debug_line    0x0000be89       0x73 c:/xilinx/14.4/ise_ds/edk/gnu/microblaze/nt64/bin/../lib/gcc/microblaze-xilinx-elf/4.6.2/bs/m/le/crtn.o

.debug_info     0x00000000     0xf022
 .debug_info    0x00000000       0xb2 c:/xilinx/14.4/ise_ds/edk/gnu/microblaze/nt64/bin/../lib/gcc/microblaze-xilinx-elf/4.6.2/../../../../microblaze-xilinx-elf/lib/bs/m/le/crt0.o
 .debug_info    0x000000b2       0x80 c:/xilinx/14.4/ise_ds/edk/gnu/microblaze/nt64/bin/../lib/gcc/microblaze-xilinx-elf/4.6.2/bs/m/le/crti.o
 .debug_info    0x00000132       0xb9 c:/xilinx/14.4/ise_ds/edk/gnu/microblaze/nt64/bin/../lib/gcc/microblaze-xilinx-elf/4.6.2/../../../../microblaze-xilinx-elf/lib/bs/m/le/crtinit.o
 .debug_info    0x000001eb      0x406 ../../wlan_bsp_cpu_high/mb_high/lib\libxil.a(xil_printf.o)
 .debug_info    0x000005f1       0xc4 ../../wlan_bsp_cpu_high/mb_high/lib\libxil.a(_exception_handler.o)
 .debug_info    0x000006b5       0xc0 ../../wlan_bsp_cpu_high/mb_high/lib\libxil.a(_program_clean.o)
 .debug_info    0x00000775       0xbf ../../wlan_bsp_cpu_high/mb_high/lib\libxil.a(_program_init.o)
 .debug_info    0x00000834       0xd7 ../../wlan_bsp_cpu_high/mb_high/lib\libxil.a(hw_exception_handler.o)
 .debug_info    0x0000090b       0xdf ../../wlan_bsp_cpu_high/mb_high/lib\libxil.a(microblaze_enable_exceptions.o)
 .debug_info    0x000009ea      0x116 ../../wlan_bsp_cpu_high/mb_high/lib\libxil.a(microblaze_interrupt_handler.o)
 .debug_info    0x00000b00       0xd6 ../../wlan_bsp_cpu_high/mb_high/lib\libxil.a(microblaze_interrupts_g.o)
 .debug_info    0x00000bd6       0x96 ../../wlan_bsp_cpu_high/mb_high/lib\libxil.a(outbyte.o)
 .debug_info    0x00000c6c       0x9d ../../wlan_bsp_cpu_high/mb_high/lib\libxil.a(xil_cache.o)
 .debug_info    0x00000d09      0x1f2 ../../wlan_bsp_cpu_high/mb_high/lib\libxil.a(xil_exception.o)
 .debug_info    0x00000efb      0x2b9 ../../wlan_bsp_cpu_high/mb_high/lib\libxil.a(xil_io.o)
 .debug_info    0x000011b4      0x7ee ../../wlan_bsp_cpu_high/mb_high/lib\libxil.a(xaxicdma.o)
 .debug_info    0x000019a2      0xa4b ../../wlan_bsp_cpu_high/mb_high/lib\libxil.a(xaxicdma_bdring.o)
 .debug_info    0x000023ed      0x46e ../../wlan_bsp_cpu_high/mb_high/lib\libxil.a(xaxicdma_intr.o)
 .debug_info    0x0000285b      0x177 ../../wlan_bsp_cpu_high/mb_high/lib\libxil.a(xaxicdma_sinit.o)
 .debug_info    0x000029d2      0x81f ../../wlan_bsp_cpu_high/mb_high/lib\libxil.a(xaxidma.o)
 .debug_info    0x000031f1      0x258 ../../wlan_bsp_cpu_high/mb_high/lib\libxil.a(xaxidma_bd.o)
 .debug_info    0x00003449      0x83e ../../wlan_bsp_cpu_high/mb_high/lib\libxil.a(xaxidma_bdring.o)
 .debug_info    0x00003c87      0x1d6 ../../wlan_bsp_cpu_high/mb_high/lib\libxil.a(xaxidma_sinit.o)
 .debug_info    0x00003e5d      0x8f1 ../../wlan_bsp_cpu_high/mb_high/lib\libxil.a(xaxiethernet.o)
 .debug_info    0x0000474e      0x28c ../../wlan_bsp_cpu_high/mb_high/lib\libxil.a(xaxiethernet_sinit.o)
 .debug_info    0x000049da      0x752 ../../wlan_bsp_cpu_high/mb_high/lib\libxil.a(xintc.o)
 .debug_info    0x0000512c      0x180 ../../wlan_bsp_cpu_high/mb_high/lib\libxil.a(xintc_g.o)
 .debug_info    0x000052ac      0x425 ../../wlan_bsp_cpu_high/mb_high/lib\libxil.a(xintc_l.o)
 .debug_info    0x000056d1      0x24e ../../wlan_bsp_cpu_high/mb_high/lib\libxil.a(xintc_options.o)
 .debug_info    0x0000591f      0x29f ../../wlan_bsp_cpu_high/mb_high/lib\libxil.a(xgpio.o)
 .debug_info    0x00005bbe      0x276 ../../wlan_bsp_cpu_high/mb_high/lib\libxil.a(xgpio_intr.o)
 .debug_info    0x00005e34      0x262 ../../wlan_bsp_cpu_high/mb_high/lib\libxil.a(xgpio_sinit.o)
 .debug_info    0x00006096      0x4eb ../../wlan_bsp_cpu_high/mb_high/lib\libxil.a(xtmrctr.o)
 .debug_info    0x00006581       0xdb ../../wlan_bsp_cpu_high/mb_high/lib\libxil.a(xtmrctr_g.o)
 .debug_info    0x0000665c      0x211 ../../wlan_bsp_cpu_high/mb_high/lib\libxil.a(xtmrctr_intr.o)
 .debug_info    0x0000686d       0x9f ../../wlan_bsp_cpu_high/mb_high/lib\libxil.a(xtmrctr_l.o)
 .debug_info    0x0000690c      0x298 ../../wlan_bsp_cpu_high/mb_high/lib\libxil.a(xtmrctr_options.o)
 .debug_info    0x00006ba4      0x511 ../../wlan_bsp_cpu_high/mb_high/lib\libxil.a(xuartlite.o)
 .debug_info    0x000070b5      0x3c3 ../../wlan_bsp_cpu_high/mb_high/lib\libxil.a(xuartlite_intr.o)
 .debug_info    0x00007478       0xe1 ../../wlan_bsp_cpu_high/mb_high/lib\libxil.a(xuartlite_l.o)
 .debug_info    0x00007559      0x3b7 ../../wlan_bsp_cpu_high/mb_high/lib\libxil.a(xuartlite_sinit.o)
 .debug_info    0x00007910      0x286 ../../wlan_bsp_cpu_high/mb_high/lib\libxil.a(xuartlite_stats.o)
 .debug_info    0x00007b96      0x6d5 ../../wlan_bsp_cpu_high/mb_high/lib\libxil.a(xmbox.o)
 .debug_info    0x0000826b      0x180 ../../wlan_bsp_cpu_high/mb_high/lib\libxil.a(xmbox_sinit.o)
 .debug_info    0x000083eb      0x40e ../../wlan_bsp_cpu_high/mb_high/lib\libxil.a(xmutex.o)
 .debug_info    0x000087f9      0x172 ../../wlan_bsp_cpu_high/mb_high/lib\libxil.a(xmutex_sinit.o)
 .debug_info    0x0000896b      0x7c5 ../../wlan_bsp_cpu_high/mb_high/lib\libxil.a(w3_iic_eeprom.o)
 .debug_info    0x00009130       0x78 ../../wlan_bsp_cpu_high/mb_high/lib\libxil.a(print.o)
 .debug_info    0x000091a8      0x15c ../../wlan_bsp_cpu_high/mb_high/lib\libxil.a(xbasic_types.o)
 .debug_info    0x00009304       0xdc ../../wlan_bsp_cpu_high/mb_high/lib\libxil.a(microblaze_disable_dcache.o)
 .debug_info    0x000093e0       0xe0 ../../wlan_bsp_cpu_high/mb_high/lib\libxil.a(microblaze_disable_exceptions.o)
 .debug_info    0x000094c0       0xdc ../../wlan_bsp_cpu_high/mb_high/lib\libxil.a(microblaze_disable_icache.o)
 .debug_info    0x0000959c       0xe0 ../../wlan_bsp_cpu_high/mb_high/lib\libxil.a(microblaze_disable_interrupts.o)
 .debug_info    0x0000967c       0xdf ../../wlan_bsp_cpu_high/mb_high/lib\libxil.a(microblaze_enable_interrupts.o)
 .debug_info    0x0000975b       0xda ../../wlan_bsp_cpu_high/mb_high/lib\libxil.a(microblaze_flush_dcache.o)
 .debug_info    0x00009835       0xdf ../../wlan_bsp_cpu_high/mb_high/lib\libxil.a(microblaze_invalidate_dcache.o)
 .debug_info    0x00009914       0xe5 ../../wlan_bsp_cpu_high/mb_high/lib\libxil.a(microblaze_invalidate_dcache_range.o)
 .debug_info    0x000099f9       0xdf ../../wlan_bsp_cpu_high/mb_high/lib\libxil.a(microblaze_invalidate_icache.o)
 .debug_info    0x00009ad8      0x139 ../../wlan_bsp_cpu_high/mb_high/lib\libxil.a(xil_assert.o)
 .debug_info    0x00009c11      0x4da ../../wlan_bsp_cpu_high/mb_high/lib\libxil.a(xaxicdma_bd.o)
 .debug_info    0x0000a0eb      0x129 ../../wlan_bsp_cpu_high/mb_high/lib\libxil.a(xaxicdma_g.o)
 .debug_info    0x0000a214      0x183 ../../wlan_bsp_cpu_high/mb_high/lib\libxil.a(xaxidma_g.o)
 .debug_info    0x0000a397      0x239 ../../wlan_bsp_cpu_high/mb_high/lib\libxil.a(xaxiethernet_g.o)
 .debug_info    0x0000a5d0       0xf7 ../../wlan_bsp_cpu_high/mb_high/lib\libxil.a(xgpio_g.o)
 .debug_info    0x0000a6c7      0x124 ../../wlan_bsp_cpu_high/mb_high/lib\libxil.a(xuartlite_g.o)
 .debug_info    0x0000a7eb      0x130 ../../wlan_bsp_cpu_high/mb_high/lib\libxil.a(xmbox_g.o)
 .debug_info    0x0000a91b      0x122 ../../wlan_bsp_cpu_high/mb_high/lib\libxil.a(xmutex_g.o)
 .debug_info    0x0000aa3d       0xf5 c:/xilinx/14.4/ise_ds/edk/gnu/microblaze/nt64/bin/../lib/gcc/microblaze-xilinx-elf/4.6.2/bs/m/le\libgcc.a(_fixunsdfdi.o)
 .debug_info    0x0000ab32       0xdc c:/xilinx/14.4/ise_ds/edk/gnu/microblaze/nt64/bin/../lib/gcc/microblaze-xilinx-elf/4.6.2/bs/m/le\libgcc.a(_floatundidf.o)
 .debug_info    0x0000ac0e      0x744 c:/xilinx/14.4/ise_ds/edk/gnu/microblaze/nt64/bin/../lib/gcc/microblaze-xilinx-elf/4.6.2/bs/m/le\libgcc.a(_udivdi3.o)
 .debug_info    0x0000b352      0x792 c:/xilinx/14.4/ise_ds/edk/gnu/microblaze/nt64/bin/../lib/gcc/microblaze-xilinx-elf/4.6.2/bs/m/le\libgcc.a(_umoddi3.o)
 .debug_info    0x0000bae4      0x45d c:/xilinx/14.4/ise_ds/edk/gnu/microblaze/nt64/bin/../lib/gcc/microblaze-xilinx-elf/4.6.2/bs/m/le\libgcc.a(_addsub_df.o)
 .debug_info    0x0000bf41      0x44a c:/xilinx/14.4/ise_ds/edk/gnu/microblaze/nt64/bin/../lib/gcc/microblaze-xilinx-elf/4.6.2/bs/m/le\libgcc.a(_mul_df.o)
 .debug_info    0x0000c38b      0x381 c:/xilinx/14.4/ise_ds/edk/gnu/microblaze/nt64/bin/../lib/gcc/microblaze-xilinx-elf/4.6.2/bs/m/le\libgcc.a(_div_df.o)
 .debug_info    0x0000c70c      0x16a c:/xilinx/14.4/ise_ds/edk/gnu/microblaze/nt64/bin/../lib/gcc/microblaze-xilinx-elf/4.6.2/bs/m/le\libgcc.a(_thenan_df.o)
 .debug_info    0x0000c876      0x236 c:/xilinx/14.4/ise_ds/edk/gnu/microblaze/nt64/bin/../lib/gcc/microblaze-xilinx-elf/4.6.2/bs/m/le\libgcc.a(_usi_to_df.o)
 .debug_info    0x0000caac       0xac c:/xilinx/14.4/ise_ds/edk/gnu/microblaze/nt64/bin/../lib/gcc/microblaze-xilinx-elf/4.6.2/bs/m/le\libgcc.a(modsi3.o)
 .debug_info    0x0000cb58       0xad c:/xilinx/14.4/ise_ds/edk/gnu/microblaze/nt64/bin/../lib/gcc/microblaze-xilinx-elf/4.6.2/bs/m/le\libgcc.a(udivsi3.o)
 .debug_info    0x0000cc05       0xad c:/xilinx/14.4/ise_ds/edk/gnu/microblaze/nt64/bin/../lib/gcc/microblaze-xilinx-elf/4.6.2/bs/m/le\libgcc.a(umodsi3.o)
 .debug_info    0x0000ccb2      0x1f5 c:/xilinx/14.4/ise_ds/edk/gnu/microblaze/nt64/bin/../lib/gcc/microblaze-xilinx-elf/4.6.2/bs/m/le\libgcc.a(_muldi3.o)
 .debug_info    0x0000cea7       0xbb c:/xilinx/14.4/ise_ds/edk/gnu/microblaze/nt64/bin/../lib/gcc/microblaze-xilinx-elf/4.6.2/bs/m/le\libgcc.a(_clz.o)
 .debug_info    0x0000cf62      0x13c c:/xilinx/14.4/ise_ds/edk/gnu/microblaze/nt64/bin/../lib/gcc/microblaze-xilinx-elf/4.6.2/bs/m/le\libgcc.a(_clzsi2.o)
 .debug_info    0x0000d09e       0xd2 c:/xilinx/14.4/ise_ds/edk/gnu/microblaze/nt64/bin/../lib/gcc/microblaze-xilinx-elf/4.6.2/bs/m/le\libgcc.a(_fixunsdfsi.o)
 .debug_info    0x0000d170      0x2bd c:/xilinx/14.4/ise_ds/edk/gnu/microblaze/nt64/bin/../lib/gcc/microblaze-xilinx-elf/4.6.2/bs/m/le\libgcc.a(_pack_df.o)
 .debug_info    0x0000d42d      0x225 c:/xilinx/14.4/ise_ds/edk/gnu/microblaze/nt64/bin/../lib/gcc/microblaze-xilinx-elf/4.6.2/bs/m/le\libgcc.a(_unpack_df.o)
 .debug_info    0x0000d652      0x256 c:/xilinx/14.4/ise_ds/edk/gnu/microblaze/nt64/bin/../lib/gcc/microblaze-xilinx-elf/4.6.2/bs/m/le\libgcc.a(_ge_df.o)
 .debug_info    0x0000d8a8      0x28b c:/xilinx/14.4/ise_ds/edk/gnu/microblaze/nt64/bin/../lib/gcc/microblaze-xilinx-elf/4.6.2/bs/m/le\libgcc.a(_df_to_si.o)
 .debug_info    0x0000db33      0x18e c:/xilinx/14.4/ise_ds/edk/gnu/microblaze/nt64/bin/../lib/gcc/microblaze-xilinx-elf/4.6.2/bs/m/le\libgcc.a(_lshrdi3.o)
 .debug_info    0x0000dcc1      0x18e c:/xilinx/14.4/ise_ds/edk/gnu/microblaze/nt64/bin/../lib/gcc/microblaze-xilinx-elf/4.6.2/bs/m/le\libgcc.a(_ashldi3.o)
 .debug_info    0x0000de4f      0x234 c:/xilinx/14.4/ise_ds/edk/gnu/microblaze/nt64/bin/../lib/gcc/microblaze-xilinx-elf/4.6.2/bs/m/le\libgcc.a(_fpcmp_parts_df.o)
 .debug_info    0x0000e083      0x23a ../../wlan_bsp_cpu_high/mb_high/lib\libxil.a(fstat.o)
 .debug_info    0x0000e2bd       0x52 ../../wlan_bsp_cpu_high/mb_high/lib\libxil.a(isatty.o)
 .debug_info    0x0000e30f       0xcb ../../wlan_bsp_cpu_high/mb_high/lib\libxil.a(lseek.o)
 .debug_info    0x0000e3da      0x101 ../../wlan_bsp_cpu_high/mb_high/lib\libxil.a(sbrk.o)
 .debug_info    0x0000e4db       0x8d ../../wlan_bsp_cpu_high/mb_high/lib\libxil.a(write.o)
 .debug_info    0x0000e568       0x8d ../../wlan_bsp_cpu_high/mb_high/lib\libxil.a(read.o)
 .debug_info    0x0000e5f5       0x52 ../../wlan_bsp_cpu_high/mb_high/lib\libxil.a(close.o)
 .debug_info    0x0000e647      0x8cf ../../wlan_bsp_cpu_high/mb_high/lib\libxil.a(errno.o)
 .debug_info    0x0000ef16       0x8c ../../wlan_bsp_cpu_high/mb_high/lib\libxil.a(inbyte.o)
 .debug_info    0x0000efa2       0x80 c:/xilinx/14.4/ise_ds/edk/gnu/microblaze/nt64/bin/../lib/gcc/microblaze-xilinx-elf/4.6.2/bs/m/le/crtn.o

.debug_abbrev   0x00000000     0x5136
 .debug_abbrev  0x00000000       0x12 c:/xilinx/14.4/ise_ds/edk/gnu/microblaze/nt64/bin/../lib/gcc/microblaze-xilinx-elf/4.6.2/../../../../microblaze-xilinx-elf/lib/bs/m/le/crt0.o
 .debug_abbrev  0x00000012       0x12 c:/xilinx/14.4/ise_ds/edk/gnu/microblaze/nt64/bin/../lib/gcc/microblaze-xilinx-elf/4.6.2/bs/m/le/crti.o
 .debug_abbrev  0x00000024       0x14 c:/xilinx/14.4/ise_ds/edk/gnu/microblaze/nt64/bin/../lib/gcc/microblaze-xilinx-elf/4.6.2/../../../../microblaze-xilinx-elf/lib/bs/m/le/crtinit.o
 .debug_abbrev  0x00000038      0x1f8 ../../wlan_bsp_cpu_high/mb_high/lib\libxil.a(xil_printf.o)
 .debug_abbrev  0x00000230       0x14 ../../wlan_bsp_cpu_high/mb_high/lib\libxil.a(_exception_handler.o)
 .debug_abbrev  0x00000244       0x14 ../../wlan_bsp_cpu_high/mb_high/lib\libxil.a(_program_clean.o)
 .debug_abbrev  0x00000258       0x14 ../../wlan_bsp_cpu_high/mb_high/lib\libxil.a(_program_init.o)
 .debug_abbrev  0x0000026c       0x14 ../../wlan_bsp_cpu_high/mb_high/lib\libxil.a(hw_exception_handler.o)
 .debug_abbrev  0x00000280       0x14 ../../wlan_bsp_cpu_high/mb_high/lib\libxil.a(microblaze_enable_exceptions.o)
 .debug_abbrev  0x00000294       0xbf ../../wlan_bsp_cpu_high/mb_high/lib\libxil.a(microblaze_interrupt_handler.o)
 .debug_abbrev  0x00000353       0x96 ../../wlan_bsp_cpu_high/mb_high/lib\libxil.a(microblaze_interrupts_g.o)
 .debug_abbrev  0x000003e9       0x4e ../../wlan_bsp_cpu_high/mb_high/lib\libxil.a(outbyte.o)
 .debug_abbrev  0x00000437       0x3f ../../wlan_bsp_cpu_high/mb_high/lib\libxil.a(xil_cache.o)
 .debug_abbrev  0x00000476      0x108 ../../wlan_bsp_cpu_high/mb_high/lib\libxil.a(xil_exception.o)
 .debug_abbrev  0x0000057e      0x120 ../../wlan_bsp_cpu_high/mb_high/lib\libxil.a(xil_io.o)
 .debug_abbrev  0x0000069e      0x24d ../../wlan_bsp_cpu_high/mb_high/lib\libxil.a(xaxicdma.o)
 .debug_abbrev  0x000008eb      0x25c ../../wlan_bsp_cpu_high/mb_high/lib\libxil.a(xaxicdma_bdring.o)
 .debug_abbrev  0x00000b47      0x155 ../../wlan_bsp_cpu_high/mb_high/lib\libxil.a(xaxicdma_intr.o)
 .debug_abbrev  0x00000c9c       0xdb ../../wlan_bsp_cpu_high/mb_high/lib\libxil.a(xaxicdma_sinit.o)
 .debug_abbrev  0x00000d77      0x24f ../../wlan_bsp_cpu_high/mb_high/lib\libxil.a(xaxidma.o)
 .debug_abbrev  0x00000fc6       0xf9 ../../wlan_bsp_cpu_high/mb_high/lib\libxil.a(xaxidma_bd.o)
 .debug_abbrev  0x000010bf      0x172 ../../wlan_bsp_cpu_high/mb_high/lib\libxil.a(xaxidma_bdring.o)
 .debug_abbrev  0x00001231       0xcc ../../wlan_bsp_cpu_high/mb_high/lib\libxil.a(xaxidma_sinit.o)
 .debug_abbrev  0x000012fd      0x20e ../../wlan_bsp_cpu_high/mb_high/lib\libxil.a(xaxiethernet.o)
 .debug_abbrev  0x0000150b       0xdd ../../wlan_bsp_cpu_high/mb_high/lib\libxil.a(xaxiethernet_sinit.o)
 .debug_abbrev  0x000015e8      0x263 ../../wlan_bsp_cpu_high/mb_high/lib\libxil.a(xintc.o)
 .debug_abbrev  0x0000184b       0xa3 ../../wlan_bsp_cpu_high/mb_high/lib\libxil.a(xintc_g.o)
 .debug_abbrev  0x000018ee      0x1d1 ../../wlan_bsp_cpu_high/mb_high/lib\libxil.a(xintc_l.o)
 .debug_abbrev  0x00001abf       0xcb ../../wlan_bsp_cpu_high/mb_high/lib\libxil.a(xintc_options.o)
 .debug_abbrev  0x00001b8a       0xb9 ../../wlan_bsp_cpu_high/mb_high/lib\libxil.a(xgpio.o)
 .debug_abbrev  0x00001c43       0xd7 ../../wlan_bsp_cpu_high/mb_high/lib\libxil.a(xgpio_intr.o)
 .debug_abbrev  0x00001d1a      0x11f ../../wlan_bsp_cpu_high/mb_high/lib\libxil.a(xgpio_sinit.o)
 .debug_abbrev  0x00001e39      0x1b7 ../../wlan_bsp_cpu_high/mb_high/lib\libxil.a(xtmrctr.o)
 .debug_abbrev  0x00001ff0       0x83 ../../wlan_bsp_cpu_high/mb_high/lib\libxil.a(xtmrctr_g.o)
 .debug_abbrev  0x00002073       0xd4 ../../wlan_bsp_cpu_high/mb_high/lib\libxil.a(xtmrctr_intr.o)
 .debug_abbrev  0x00002147       0x5a ../../wlan_bsp_cpu_high/mb_high/lib\libxil.a(xtmrctr_l.o)
 .debug_abbrev  0x000021a1      0x10c ../../wlan_bsp_cpu_high/mb_high/lib\libxil.a(xtmrctr_options.o)
 .debug_abbrev  0x000022ad      0x16d ../../wlan_bsp_cpu_high/mb_high/lib\libxil.a(xuartlite.o)
 .debug_abbrev  0x0000241a      0x157 ../../wlan_bsp_cpu_high/mb_high/lib\libxil.a(xuartlite_intr.o)
 .debug_abbrev  0x00002571       0x74 ../../wlan_bsp_cpu_high/mb_high/lib\libxil.a(xuartlite_l.o)
 .debug_abbrev  0x000025e5      0x136 ../../wlan_bsp_cpu_high/mb_high/lib\libxil.a(xuartlite_sinit.o)
 .debug_abbrev  0x0000271b       0xb7 ../../wlan_bsp_cpu_high/mb_high/lib\libxil.a(xuartlite_stats.o)
 .debug_abbrev  0x000027d2      0x144 ../../wlan_bsp_cpu_high/mb_high/lib\libxil.a(xmbox.o)
 .debug_abbrev  0x00002916       0xce ../../wlan_bsp_cpu_high/mb_high/lib\libxil.a(xmbox_sinit.o)
 .debug_abbrev  0x000029e4      0x125 ../../wlan_bsp_cpu_high/mb_high/lib\libxil.a(xmutex.o)
 .debug_abbrev  0x00002b09       0xce ../../wlan_bsp_cpu_high/mb_high/lib\libxil.a(xmutex_sinit.o)
 .debug_abbrev  0x00002bd7      0x22f ../../wlan_bsp_cpu_high/mb_high/lib\libxil.a(w3_iic_eeprom.o)
 .debug_abbrev  0x00002e06       0x76 ../../wlan_bsp_cpu_high/mb_high/lib\libxil.a(print.o)
 .debug_abbrev  0x00002e7c       0xd4 ../../wlan_bsp_cpu_high/mb_high/lib\libxil.a(xbasic_types.o)
 .debug_abbrev  0x00002f50       0x14 ../../wlan_bsp_cpu_high/mb_high/lib\libxil.a(microblaze_disable_dcache.o)
 .debug_abbrev  0x00002f64       0x14 ../../wlan_bsp_cpu_high/mb_high/lib\libxil.a(microblaze_disable_exceptions.o)
 .debug_abbrev  0x00002f78       0x14 ../../wlan_bsp_cpu_high/mb_high/lib\libxil.a(microblaze_disable_icache.o)
 .debug_abbrev  0x00002f8c       0x14 ../../wlan_bsp_cpu_high/mb_high/lib\libxil.a(microblaze_disable_interrupts.o)
 .debug_abbrev  0x00002fa0       0x14 ../../wlan_bsp_cpu_high/mb_high/lib\libxil.a(microblaze_enable_interrupts.o)
 .debug_abbrev  0x00002fb4       0x14 ../../wlan_bsp_cpu_high/mb_high/lib\libxil.a(microblaze_flush_dcache.o)
 .debug_abbrev  0x00002fc8       0x14 ../../wlan_bsp_cpu_high/mb_high/lib\libxil.a(microblaze_invalidate_dcache.o)
 .debug_abbrev  0x00002fdc       0x14 ../../wlan_bsp_cpu_high/mb_high/lib\libxil.a(microblaze_invalidate_dcache_range.o)
 .debug_abbrev  0x00002ff0       0x14 ../../wlan_bsp_cpu_high/mb_high/lib\libxil.a(microblaze_invalidate_icache.o)
 .debug_abbrev  0x00003004       0xd4 ../../wlan_bsp_cpu_high/mb_high/lib\libxil.a(xil_assert.o)
 .debug_abbrev  0x000030d8      0x1aa ../../wlan_bsp_cpu_high/mb_high/lib\libxil.a(xaxicdma_bd.o)
 .debug_abbrev  0x00003282       0x90 ../../wlan_bsp_cpu_high/mb_high/lib\libxil.a(xaxicdma_g.o)
 .debug_abbrev  0x00003312       0x90 ../../wlan_bsp_cpu_high/mb_high/lib\libxil.a(xaxidma_g.o)
 .debug_abbrev  0x000033a2       0xa1 ../../wlan_bsp_cpu_high/mb_high/lib\libxil.a(xaxiethernet_g.o)
 .debug_abbrev  0x00003443       0x83 ../../wlan_bsp_cpu_high/mb_high/lib\libxil.a(xgpio_g.o)
 .debug_abbrev  0x000034c6       0x83 ../../wlan_bsp_cpu_high/mb_high/lib\libxil.a(xuartlite_g.o)
 .debug_abbrev  0x00003549       0x83 ../../wlan_bsp_cpu_high/mb_high/lib\libxil.a(xmbox_g.o)
 .debug_abbrev  0x000035cc       0x83 ../../wlan_bsp_cpu_high/mb_high/lib\libxil.a(xmutex_g.o)
 .debug_abbrev  0x0000364f       0x82 c:/xilinx/14.4/ise_ds/edk/gnu/microblaze/nt64/bin/../lib/gcc/microblaze-xilinx-elf/4.6.2/bs/m/le\libgcc.a(_fixunsdfdi.o)
 .debug_abbrev  0x000036d1       0x6a c:/xilinx/14.4/ise_ds/edk/gnu/microblaze/nt64/bin/../lib/gcc/microblaze-xilinx-elf/4.6.2/bs/m/le\libgcc.a(_floatundidf.o)
 .debug_abbrev  0x0000373b      0x192 c:/xilinx/14.4/ise_ds/edk/gnu/microblaze/nt64/bin/../lib/gcc/microblaze-xilinx-elf/4.6.2/bs/m/le\libgcc.a(_udivdi3.o)
 .debug_abbrev  0x000038cd      0x198 c:/xilinx/14.4/ise_ds/edk/gnu/microblaze/nt64/bin/../lib/gcc/microblaze-xilinx-elf/4.6.2/bs/m/le\libgcc.a(_umoddi3.o)
 .debug_abbrev  0x00003a65      0x19d c:/xilinx/14.4/ise_ds/edk/gnu/microblaze/nt64/bin/../lib/gcc/microblaze-xilinx-elf/4.6.2/bs/m/le\libgcc.a(_addsub_df.o)
 .debug_abbrev  0x00003c02      0x1c0 c:/xilinx/14.4/ise_ds/edk/gnu/microblaze/nt64/bin/../lib/gcc/microblaze-xilinx-elf/4.6.2/bs/m/le\libgcc.a(_mul_df.o)
 .debug_abbrev  0x00003dc2      0x1ba c:/xilinx/14.4/ise_ds/edk/gnu/microblaze/nt64/bin/../lib/gcc/microblaze-xilinx-elf/4.6.2/bs/m/le\libgcc.a(_div_df.o)
 .debug_abbrev  0x00003f7c       0xcb c:/xilinx/14.4/ise_ds/edk/gnu/microblaze/nt64/bin/../lib/gcc/microblaze-xilinx-elf/4.6.2/bs/m/le\libgcc.a(_thenan_df.o)
 .debug_abbrev  0x00004047      0x171 c:/xilinx/14.4/ise_ds/edk/gnu/microblaze/nt64/bin/../lib/gcc/microblaze-xilinx-elf/4.6.2/bs/m/le\libgcc.a(_usi_to_df.o)
 .debug_abbrev  0x000041b8       0x14 c:/xilinx/14.4/ise_ds/edk/gnu/microblaze/nt64/bin/../lib/gcc/microblaze-xilinx-elf/4.6.2/bs/m/le\libgcc.a(modsi3.o)
 .debug_abbrev  0x000041cc       0x14 c:/xilinx/14.4/ise_ds/edk/gnu/microblaze/nt64/bin/../lib/gcc/microblaze-xilinx-elf/4.6.2/bs/m/le\libgcc.a(udivsi3.o)
 .debug_abbrev  0x000041e0       0x14 c:/xilinx/14.4/ise_ds/edk/gnu/microblaze/nt64/bin/../lib/gcc/microblaze-xilinx-elf/4.6.2/bs/m/le\libgcc.a(umodsi3.o)
 .debug_abbrev  0x000041f4       0xec c:/xilinx/14.4/ise_ds/edk/gnu/microblaze/nt64/bin/../lib/gcc/microblaze-xilinx-elf/4.6.2/bs/m/le\libgcc.a(_muldi3.o)
 .debug_abbrev  0x000042e0       0x61 c:/xilinx/14.4/ise_ds/edk/gnu/microblaze/nt64/bin/../lib/gcc/microblaze-xilinx-elf/4.6.2/bs/m/le\libgcc.a(_clz.o)
 .debug_abbrev  0x00004341       0xcc c:/xilinx/14.4/ise_ds/edk/gnu/microblaze/nt64/bin/../lib/gcc/microblaze-xilinx-elf/4.6.2/bs/m/le\libgcc.a(_clzsi2.o)
 .debug_abbrev  0x0000440d       0x5d c:/xilinx/14.4/ise_ds/edk/gnu/microblaze/nt64/bin/../lib/gcc/microblaze-xilinx-elf/4.6.2/bs/m/le\libgcc.a(_fixunsdfsi.o)
 .debug_abbrev  0x0000446a      0x173 c:/xilinx/14.4/ise_ds/edk/gnu/microblaze/nt64/bin/../lib/gcc/microblaze-xilinx-elf/4.6.2/bs/m/le\libgcc.a(_pack_df.o)
 .debug_abbrev  0x000045dd      0x130 c:/xilinx/14.4/ise_ds/edk/gnu/microblaze/nt64/bin/../lib/gcc/microblaze-xilinx-elf/4.6.2/bs/m/le\libgcc.a(_unpack_df.o)
 .debug_abbrev  0x0000470d      0x127 c:/xilinx/14.4/ise_ds/edk/gnu/microblaze/nt64/bin/../lib/gcc/microblaze-xilinx-elf/4.6.2/bs/m/le\libgcc.a(_ge_df.o)
 .debug_abbrev  0x00004834      0x14e c:/xilinx/14.4/ise_ds/edk/gnu/microblaze/nt64/bin/../lib/gcc/microblaze-xilinx-elf/4.6.2/bs/m/le\libgcc.a(_df_to_si.o)
 .debug_abbrev  0x00004982       0xec c:/xilinx/14.4/ise_ds/edk/gnu/microblaze/nt64/bin/../lib/gcc/microblaze-xilinx-elf/4.6.2/bs/m/le\libgcc.a(_lshrdi3.o)
 .debug_abbrev  0x00004a6e       0xec c:/xilinx/14.4/ise_ds/edk/gnu/microblaze/nt64/bin/../lib/gcc/microblaze-xilinx-elf/4.6.2/bs/m/le\libgcc.a(_ashldi3.o)
 .debug_abbrev  0x00004b5a      0x134 c:/xilinx/14.4/ise_ds/edk/gnu/microblaze/nt64/bin/../lib/gcc/microblaze-xilinx-elf/4.6.2/bs/m/le\libgcc.a(_fpcmp_parts_df.o)
 .debug_abbrev  0x00004c8e       0x96 ../../wlan_bsp_cpu_high/mb_high/lib\libxil.a(fstat.o)
 .debug_abbrev  0x00004d24       0x45 ../../wlan_bsp_cpu_high/mb_high/lib\libxil.a(isatty.o)
 .debug_abbrev  0x00004d69       0x6a ../../wlan_bsp_cpu_high/mb_high/lib\libxil.a(lseek.o)
 .debug_abbrev  0x00004dd3       0x96 ../../wlan_bsp_cpu_high/mb_high/lib\libxil.a(sbrk.o)
 .debug_abbrev  0x00004e69       0x77 ../../wlan_bsp_cpu_high/mb_high/lib\libxil.a(write.o)
 .debug_abbrev  0x00004ee0       0x77 ../../wlan_bsp_cpu_high/mb_high/lib\libxil.a(read.o)
 .debug_abbrev  0x00004f57       0x45 ../../wlan_bsp_cpu_high/mb_high/lib\libxil.a(close.o)
 .debug_abbrev  0x00004f9c      0x147 ../../wlan_bsp_cpu_high/mb_high/lib\libxil.a(errno.o)
 .debug_abbrev  0x000050e3       0x41 ../../wlan_bsp_cpu_high/mb_high/lib\libxil.a(inbyte.o)
 .debug_abbrev  0x00005124       0x12 c:/xilinx/14.4/ise_ds/edk/gnu/microblaze/nt64/bin/../lib/gcc/microblaze-xilinx-elf/4.6.2/bs/m/le/crtn.o

.debug_aranges  0x00000000      0xb10
 .debug_aranges
                0x00000000       0x40 c:/xilinx/14.4/ise_ds/edk/gnu/microblaze/nt64/bin/../lib/gcc/microblaze-xilinx-elf/4.6.2/../../../../microblaze-xilinx-elf/lib/bs/m/le/crt0.o
 .debug_aranges
                0x00000040       0x28 c:/xilinx/14.4/ise_ds/edk/gnu/microblaze/nt64/bin/../lib/gcc/microblaze-xilinx-elf/4.6.2/bs/m/le/crti.o
 .debug_aranges
                0x00000068       0x20 c:/xilinx/14.4/ise_ds/edk/gnu/microblaze/nt64/bin/../lib/gcc/microblaze-xilinx-elf/4.6.2/../../../../microblaze-xilinx-elf/lib/bs/m/le/crtinit.o
 .debug_aranges
                0x00000088       0x20 ../../wlan_bsp_cpu_high/mb_high/lib\libxil.a(xil_printf.o)
 .debug_aranges
                0x000000a8       0x20 ../../wlan_bsp_cpu_high/mb_high/lib\libxil.a(_exception_handler.o)
 .debug_aranges
                0x000000c8       0x20 ../../wlan_bsp_cpu_high/mb_high/lib\libxil.a(_program_clean.o)
 .debug_aranges
                0x000000e8       0x20 ../../wlan_bsp_cpu_high/mb_high/lib\libxil.a(_program_init.o)
 .debug_aranges
                0x00000108       0x20 ../../wlan_bsp_cpu_high/mb_high/lib\libxil.a(hw_exception_handler.o)
 .debug_aranges
                0x00000128       0x20 ../../wlan_bsp_cpu_high/mb_high/lib\libxil.a(microblaze_enable_exceptions.o)
 .debug_aranges
                0x00000148       0x20 ../../wlan_bsp_cpu_high/mb_high/lib\libxil.a(microblaze_interrupt_handler.o)
 .debug_aranges
                0x00000168       0x20 ../../wlan_bsp_cpu_high/mb_high/lib\libxil.a(outbyte.o)
 .debug_aranges
                0x00000188       0x20 ../../wlan_bsp_cpu_high/mb_high/lib\libxil.a(xil_cache.o)
 .debug_aranges
                0x000001a8       0x20 ../../wlan_bsp_cpu_high/mb_high/lib\libxil.a(xil_exception.o)
 .debug_aranges
                0x000001c8       0x20 ../../wlan_bsp_cpu_high/mb_high/lib\libxil.a(xil_io.o)
 .debug_aranges
                0x000001e8       0x20 ../../wlan_bsp_cpu_high/mb_high/lib\libxil.a(xaxicdma.o)
 .debug_aranges
                0x00000208       0x20 ../../wlan_bsp_cpu_high/mb_high/lib\libxil.a(xaxicdma_bdring.o)
 .debug_aranges
                0x00000228       0x20 ../../wlan_bsp_cpu_high/mb_high/lib\libxil.a(xaxicdma_intr.o)
 .debug_aranges
                0x00000248       0x20 ../../wlan_bsp_cpu_high/mb_high/lib\libxil.a(xaxicdma_sinit.o)
 .debug_aranges
                0x00000268       0x20 ../../wlan_bsp_cpu_high/mb_high/lib\libxil.a(xaxidma.o)
 .debug_aranges
                0x00000288       0x20 ../../wlan_bsp_cpu_high/mb_high/lib\libxil.a(xaxidma_bd.o)
 .debug_aranges
                0x000002a8       0x20 ../../wlan_bsp_cpu_high/mb_high/lib\libxil.a(xaxidma_bdring.o)
 .debug_aranges
                0x000002c8       0x20 ../../wlan_bsp_cpu_high/mb_high/lib\libxil.a(xaxidma_sinit.o)
 .debug_aranges
                0x000002e8       0x20 ../../wlan_bsp_cpu_high/mb_high/lib\libxil.a(xaxiethernet.o)
 .debug_aranges
                0x00000308       0x20 ../../wlan_bsp_cpu_high/mb_high/lib\libxil.a(xaxiethernet_sinit.o)
 .debug_aranges
                0x00000328       0x20 ../../wlan_bsp_cpu_high/mb_high/lib\libxil.a(xintc.o)
 .debug_aranges
                0x00000348       0x20 ../../wlan_bsp_cpu_high/mb_high/lib\libxil.a(xintc_l.o)
 .debug_aranges
                0x00000368       0x20 ../../wlan_bsp_cpu_high/mb_high/lib\libxil.a(xintc_options.o)
 .debug_aranges
                0x00000388       0x20 ../../wlan_bsp_cpu_high/mb_high/lib\libxil.a(xgpio.o)
 .debug_aranges
                0x000003a8       0x20 ../../wlan_bsp_cpu_high/mb_high/lib\libxil.a(xgpio_intr.o)
 .debug_aranges
                0x000003c8       0x20 ../../wlan_bsp_cpu_high/mb_high/lib\libxil.a(xgpio_sinit.o)
 .debug_aranges
                0x000003e8       0x20 ../../wlan_bsp_cpu_high/mb_high/lib\libxil.a(xtmrctr.o)
 .debug_aranges
                0x00000408       0x20 ../../wlan_bsp_cpu_high/mb_high/lib\libxil.a(xtmrctr_intr.o)
 .debug_aranges
                0x00000428       0x20 ../../wlan_bsp_cpu_high/mb_high/lib\libxil.a(xtmrctr_options.o)
 .debug_aranges
                0x00000448       0x20 ../../wlan_bsp_cpu_high/mb_high/lib\libxil.a(xuartlite.o)
 .debug_aranges
                0x00000468       0x20 ../../wlan_bsp_cpu_high/mb_high/lib\libxil.a(xuartlite_intr.o)
 .debug_aranges
                0x00000488       0x20 ../../wlan_bsp_cpu_high/mb_high/lib\libxil.a(xuartlite_l.o)
 .debug_aranges
                0x000004a8       0x20 ../../wlan_bsp_cpu_high/mb_high/lib\libxil.a(xuartlite_sinit.o)
 .debug_aranges
                0x000004c8       0x20 ../../wlan_bsp_cpu_high/mb_high/lib\libxil.a(xuartlite_stats.o)
 .debug_aranges
                0x000004e8       0x20 ../../wlan_bsp_cpu_high/mb_high/lib\libxil.a(xmbox.o)
 .debug_aranges
                0x00000508       0x20 ../../wlan_bsp_cpu_high/mb_high/lib\libxil.a(xmbox_sinit.o)
 .debug_aranges
                0x00000528       0x20 ../../wlan_bsp_cpu_high/mb_high/lib\libxil.a(xmutex.o)
 .debug_aranges
                0x00000548       0x20 ../../wlan_bsp_cpu_high/mb_high/lib\libxil.a(xmutex_sinit.o)
 .debug_aranges
                0x00000568       0x20 ../../wlan_bsp_cpu_high/mb_high/lib\libxil.a(w3_iic_eeprom.o)
 .debug_aranges
                0x00000588       0x20 ../../wlan_bsp_cpu_high/mb_high/lib\libxil.a(print.o)
 .debug_aranges
                0x000005a8       0x20 ../../wlan_bsp_cpu_high/mb_high/lib\libxil.a(xbasic_types.o)
 .debug_aranges
                0x000005c8       0x20 ../../wlan_bsp_cpu_high/mb_high/lib\libxil.a(microblaze_disable_dcache.o)
 .debug_aranges
                0x000005e8       0x20 ../../wlan_bsp_cpu_high/mb_high/lib\libxil.a(microblaze_disable_exceptions.o)
 .debug_aranges
                0x00000608       0x20 ../../wlan_bsp_cpu_high/mb_high/lib\libxil.a(microblaze_disable_icache.o)
 .debug_aranges
                0x00000628       0x20 ../../wlan_bsp_cpu_high/mb_high/lib\libxil.a(microblaze_disable_interrupts.o)
 .debug_aranges
                0x00000648       0x20 ../../wlan_bsp_cpu_high/mb_high/lib\libxil.a(microblaze_enable_interrupts.o)
 .debug_aranges
                0x00000668       0x20 ../../wlan_bsp_cpu_high/mb_high/lib\libxil.a(microblaze_flush_dcache.o)
 .debug_aranges
                0x00000688       0x20 ../../wlan_bsp_cpu_high/mb_high/lib\libxil.a(microblaze_invalidate_dcache.o)
 .debug_aranges
                0x000006a8       0x20 ../../wlan_bsp_cpu_high/mb_high/lib\libxil.a(microblaze_invalidate_dcache_range.o)
 .debug_aranges
                0x000006c8       0x20 ../../wlan_bsp_cpu_high/mb_high/lib\libxil.a(microblaze_invalidate_icache.o)
 .debug_aranges
                0x000006e8       0x20 ../../wlan_bsp_cpu_high/mb_high/lib\libxil.a(xil_assert.o)
 .debug_aranges
                0x00000708       0x20 ../../wlan_bsp_cpu_high/mb_high/lib\libxil.a(xaxicdma_bd.o)
 .debug_aranges
                0x00000728       0x20 c:/xilinx/14.4/ise_ds/edk/gnu/microblaze/nt64/bin/../lib/gcc/microblaze-xilinx-elf/4.6.2/bs/m/le\libgcc.a(_fixunsdfdi.o)
 .debug_aranges
                0x00000748       0x20 c:/xilinx/14.4/ise_ds/edk/gnu/microblaze/nt64/bin/../lib/gcc/microblaze-xilinx-elf/4.6.2/bs/m/le\libgcc.a(_floatundidf.o)
 .debug_aranges
                0x00000768       0x20 c:/xilinx/14.4/ise_ds/edk/gnu/microblaze/nt64/bin/../lib/gcc/microblaze-xilinx-elf/4.6.2/bs/m/le\libgcc.a(_udivdi3.o)
 .debug_aranges
                0x00000788       0x20 c:/xilinx/14.4/ise_ds/edk/gnu/microblaze/nt64/bin/../lib/gcc/microblaze-xilinx-elf/4.6.2/bs/m/le\libgcc.a(_umoddi3.o)
 .debug_aranges
                0x000007a8       0x20 c:/xilinx/14.4/ise_ds/edk/gnu/microblaze/nt64/bin/../lib/gcc/microblaze-xilinx-elf/4.6.2/bs/m/le\libgcc.a(_addsub_df.o)
 .debug_aranges
                0x000007c8       0x20 c:/xilinx/14.4/ise_ds/edk/gnu/microblaze/nt64/bin/../lib/gcc/microblaze-xilinx-elf/4.6.2/bs/m/le\libgcc.a(_mul_df.o)
 .debug_aranges
                0x000007e8       0x20 c:/xilinx/14.4/ise_ds/edk/gnu/microblaze/nt64/bin/../lib/gcc/microblaze-xilinx-elf/4.6.2/bs/m/le\libgcc.a(_div_df.o)
 .debug_aranges
                0x00000808       0x20 c:/xilinx/14.4/ise_ds/edk/gnu/microblaze/nt64/bin/../lib/gcc/microblaze-xilinx-elf/4.6.2/bs/m/le\libgcc.a(_usi_to_df.o)
 .debug_aranges
                0x00000828       0x20 c:/xilinx/14.4/ise_ds/edk/gnu/microblaze/nt64/bin/../lib/gcc/microblaze-xilinx-elf/4.6.2/bs/m/le\libgcc.a(modsi3.o)
 .debug_aranges
                0x00000848       0x20 c:/xilinx/14.4/ise_ds/edk/gnu/microblaze/nt64/bin/../lib/gcc/microblaze-xilinx-elf/4.6.2/bs/m/le\libgcc.a(udivsi3.o)
 .debug_aranges
                0x00000868       0x20 c:/xilinx/14.4/ise_ds/edk/gnu/microblaze/nt64/bin/../lib/gcc/microblaze-xilinx-elf/4.6.2/bs/m/le\libgcc.a(umodsi3.o)
 .debug_aranges
                0x00000888       0x20 c:/xilinx/14.4/ise_ds/edk/gnu/microblaze/nt64/bin/../lib/gcc/microblaze-xilinx-elf/4.6.2/bs/m/le\libgcc.a(_muldi3.o)
 .debug_aranges
                0x000008a8       0x20 c:/xilinx/14.4/ise_ds/edk/gnu/microblaze/nt64/bin/../lib/gcc/microblaze-xilinx-elf/4.6.2/bs/m/le\libgcc.a(_clzsi2.o)
 .debug_aranges
                0x000008c8       0x20 c:/xilinx/14.4/ise_ds/edk/gnu/microblaze/nt64/bin/../lib/gcc/microblaze-xilinx-elf/4.6.2/bs/m/le\libgcc.a(_fixunsdfsi.o)
 .debug_aranges
                0x000008e8       0x20 c:/xilinx/14.4/ise_ds/edk/gnu/microblaze/nt64/bin/../lib/gcc/microblaze-xilinx-elf/4.6.2/bs/m/le\libgcc.a(_pack_df.o)
 .debug_aranges
                0x00000908       0x20 c:/xilinx/14.4/ise_ds/edk/gnu/microblaze/nt64/bin/../lib/gcc/microblaze-xilinx-elf/4.6.2/bs/m/le\libgcc.a(_unpack_df.o)
 .debug_aranges
                0x00000928       0x20 c:/xilinx/14.4/ise_ds/edk/gnu/microblaze/nt64/bin/../lib/gcc/microblaze-xilinx-elf/4.6.2/bs/m/le\libgcc.a(_ge_df.o)
 .debug_aranges
                0x00000948       0x20 c:/xilinx/14.4/ise_ds/edk/gnu/microblaze/nt64/bin/../lib/gcc/microblaze-xilinx-elf/4.6.2/bs/m/le\libgcc.a(_df_to_si.o)
 .debug_aranges
                0x00000968       0x20 c:/xilinx/14.4/ise_ds/edk/gnu/microblaze/nt64/bin/../lib/gcc/microblaze-xilinx-elf/4.6.2/bs/m/le\libgcc.a(_lshrdi3.o)
 .debug_aranges
                0x00000988       0x20 c:/xilinx/14.4/ise_ds/edk/gnu/microblaze/nt64/bin/../lib/gcc/microblaze-xilinx-elf/4.6.2/bs/m/le\libgcc.a(_ashldi3.o)
 .debug_aranges
                0x000009a8       0x20 c:/xilinx/14.4/ise_ds/edk/gnu/microblaze/nt64/bin/../lib/gcc/microblaze-xilinx-elf/4.6.2/bs/m/le\libgcc.a(_fpcmp_parts_df.o)
 .debug_aranges
                0x000009c8       0x20 ../../wlan_bsp_cpu_high/mb_high/lib\libxil.a(fstat.o)
 .debug_aranges
                0x000009e8       0x20 ../../wlan_bsp_cpu_high/mb_high/lib\libxil.a(isatty.o)
 .debug_aranges
                0x00000a08       0x20 ../../wlan_bsp_cpu_high/mb_high/lib\libxil.a(lseek.o)
 .debug_aranges
                0x00000a28       0x20 ../../wlan_bsp_cpu_high/mb_high/lib\libxil.a(sbrk.o)
 .debug_aranges
                0x00000a48       0x20 ../../wlan_bsp_cpu_high/mb_high/lib\libxil.a(write.o)
 .debug_aranges
                0x00000a68       0x20 ../../wlan_bsp_cpu_high/mb_high/lib\libxil.a(read.o)
 .debug_aranges
                0x00000a88       0x20 ../../wlan_bsp_cpu_high/mb_high/lib\libxil.a(close.o)
 .debug_aranges
                0x00000aa8       0x20 ../../wlan_bsp_cpu_high/mb_high/lib\libxil.a(errno.o)
 .debug_aranges
                0x00000ac8       0x20 ../../wlan_bsp_cpu_high/mb_high/lib\libxil.a(inbyte.o)
 .debug_aranges
                0x00000ae8       0x28 c:/xilinx/14.4/ise_ds/edk/gnu/microblaze/nt64/bin/../lib/gcc/microblaze-xilinx-elf/4.6.2/bs/m/le/crtn.o

.debug_ranges   0x00000000      0x910
 .debug_ranges  0x00000000       0x38 c:/xilinx/14.4/ise_ds/edk/gnu/microblaze/nt64/bin/../lib/gcc/microblaze-xilinx-elf/4.6.2/../../../../microblaze-xilinx-elf/lib/bs/m/le/crt0.o
 .debug_ranges  0x00000038       0x20 c:/xilinx/14.4/ise_ds/edk/gnu/microblaze/nt64/bin/../lib/gcc/microblaze-xilinx-elf/4.6.2/bs/m/le/crti.o
 .debug_ranges  0x00000058       0x30 ../../wlan_bsp_cpu_high/mb_high/lib\libxil.a(xil_printf.o)
 .debug_ranges  0x00000088       0x30 ../../wlan_bsp_cpu_high/mb_high/lib\libxil.a(xaxicdma.o)
 .debug_ranges  0x000000b8      0x158 ../../wlan_bsp_cpu_high/mb_high/lib\libxil.a(xaxicdma_bdring.o)
 .debug_ranges  0x00000210       0x18 ../../wlan_bsp_cpu_high/mb_high/lib\libxil.a(xaxicdma_intr.o)
 .debug_ranges  0x00000228       0x70 ../../wlan_bsp_cpu_high/mb_high/lib\libxil.a(xaxidma.o)
 .debug_ranges  0x00000298       0xc8 ../../wlan_bsp_cpu_high/mb_high/lib\libxil.a(xaxidma_bdring.o)
 .debug_ranges  0x00000360       0x30 ../../wlan_bsp_cpu_high/mb_high/lib\libxil.a(xaxiethernet.o)
 .debug_ranges  0x00000390       0x30 ../../wlan_bsp_cpu_high/mb_high/lib\libxil.a(xintc.o)
 .debug_ranges  0x000003c0       0x20 ../../wlan_bsp_cpu_high/mb_high/lib\libxil.a(xintc_l.o)
 .debug_ranges  0x000003e0       0x30 ../../wlan_bsp_cpu_high/mb_high/lib\libxil.a(xgpio_sinit.o)
 .debug_ranges  0x00000410       0x30 ../../wlan_bsp_cpu_high/mb_high/lib\libxil.a(xtmrctr.o)
 .debug_ranges  0x00000440       0x30 ../../wlan_bsp_cpu_high/mb_high/lib\libxil.a(xuartlite_intr.o)
 .debug_ranges  0x00000470       0x30 ../../wlan_bsp_cpu_high/mb_high/lib\libxil.a(xuartlite_sinit.o)
 .debug_ranges  0x000004a0       0x60 ../../wlan_bsp_cpu_high/mb_high/lib\libxil.a(w3_iic_eeprom.o)
 .debug_ranges  0x00000500      0x110 c:/xilinx/14.4/ise_ds/edk/gnu/microblaze/nt64/bin/../lib/gcc/microblaze-xilinx-elf/4.6.2/bs/m/le\libgcc.a(_udivdi3.o)
 .debug_ranges  0x00000610      0x120 c:/xilinx/14.4/ise_ds/edk/gnu/microblaze/nt64/bin/../lib/gcc/microblaze-xilinx-elf/4.6.2/bs/m/le\libgcc.a(_umoddi3.o)
 .debug_ranges  0x00000730       0x38 c:/xilinx/14.4/ise_ds/edk/gnu/microblaze/nt64/bin/../lib/gcc/microblaze-xilinx-elf/4.6.2/bs/m/le\libgcc.a(_addsub_df.o)
 .debug_ranges  0x00000768       0x68 c:/xilinx/14.4/ise_ds/edk/gnu/microblaze/nt64/bin/../lib/gcc/microblaze-xilinx-elf/4.6.2/bs/m/le\libgcc.a(_mul_df.o)
 .debug_ranges  0x000007d0       0x40 c:/xilinx/14.4/ise_ds/edk/gnu/microblaze/nt64/bin/../lib/gcc/microblaze-xilinx-elf/4.6.2/bs/m/le\libgcc.a(_div_df.o)
 .debug_ranges  0x00000810       0x48 c:/xilinx/14.4/ise_ds/edk/gnu/microblaze/nt64/bin/../lib/gcc/microblaze-xilinx-elf/4.6.2/bs/m/le\libgcc.a(_usi_to_df.o)
 .debug_ranges  0x00000858       0x40 c:/xilinx/14.4/ise_ds/edk/gnu/microblaze/nt64/bin/../lib/gcc/microblaze-xilinx-elf/4.6.2/bs/m/le\libgcc.a(_muldi3.o)
 .debug_ranges  0x00000898       0x28 c:/xilinx/14.4/ise_ds/edk/gnu/microblaze/nt64/bin/../lib/gcc/microblaze-xilinx-elf/4.6.2/bs/m/le\libgcc.a(_clzsi2.o)
 .debug_ranges  0x000008c0       0x18 c:/xilinx/14.4/ise_ds/edk/gnu/microblaze/nt64/bin/../lib/gcc/microblaze-xilinx-elf/4.6.2/bs/m/le\libgcc.a(_lshrdi3.o)
 .debug_ranges  0x000008d8       0x18 c:/xilinx/14.4/ise_ds/edk/gnu/microblaze/nt64/bin/../lib/gcc/microblaze-xilinx-elf/4.6.2/bs/m/le\libgcc.a(_ashldi3.o)
 .debug_ranges  0x000008f0       0x20 c:/xilinx/14.4/ise_ds/edk/gnu/microblaze/nt64/bin/../lib/gcc/microblaze-xilinx-elf/4.6.2/bs/m/le/crtn.o

.debug_frame    0x00000000     0x1b14
 .debug_frame   0x00000000       0x78 ../../wlan_bsp_cpu_high/mb_high/lib\libxil.a(xil_printf.o)
 .debug_frame   0x00000078       0x54 ../../wlan_bsp_cpu_high/mb_high/lib\libxil.a(microblaze_interrupt_handler.o)
 .debug_frame   0x000000cc       0x28 ../../wlan_bsp_cpu_high/mb_high/lib\libxil.a(outbyte.o)
 .debug_frame   0x000000f4       0x40 ../../wlan_bsp_cpu_high/mb_high/lib\libxil.a(xil_cache.o)
 .debug_frame   0x00000134       0x80 ../../wlan_bsp_cpu_high/mb_high/lib\libxil.a(xil_exception.o)
 .debug_frame   0x000001b4       0x70 ../../wlan_bsp_cpu_high/mb_high/lib\libxil.a(xil_io.o)
 .debug_frame   0x00000224       0xe0 ../../wlan_bsp_cpu_high/mb_high/lib\libxil.a(xaxicdma.o)
 .debug_frame   0x00000304      0x184 ../../wlan_bsp_cpu_high/mb_high/lib\libxil.a(xaxicdma_bdring.o)
 .debug_frame   0x00000488       0x5c ../../wlan_bsp_cpu_high/mb_high/lib\libxil.a(xaxicdma_intr.o)
 .debug_frame   0x000004e4       0x20 ../../wlan_bsp_cpu_high/mb_high/lib\libxil.a(xaxicdma_sinit.o)
 .debug_frame   0x00000504       0xa8 ../../wlan_bsp_cpu_high/mb_high/lib\libxil.a(xaxidma.o)
 .debug_frame   0x000005ac       0x84 ../../wlan_bsp_cpu_high/mb_high/lib\libxil.a(xaxidma_bd.o)
 .debug_frame   0x00000630      0x16c ../../wlan_bsp_cpu_high/mb_high/lib\libxil.a(xaxidma_bdring.o)
 .debug_frame   0x0000079c       0x20 ../../wlan_bsp_cpu_high/mb_high/lib\libxil.a(xaxidma_sinit.o)
 .debug_frame   0x000007bc      0x1bc ../../wlan_bsp_cpu_high/mb_high/lib\libxil.a(xaxiethernet.o)
 .debug_frame   0x00000978       0x20 ../../wlan_bsp_cpu_high/mb_high/lib\libxil.a(xaxiethernet_sinit.o)
 .debug_frame   0x00000998      0x138 ../../wlan_bsp_cpu_high/mb_high/lib\libxil.a(xintc.o)
 .debug_frame   0x00000ad0       0x78 ../../wlan_bsp_cpu_high/mb_high/lib\libxil.a(xintc_l.o)
 .debug_frame   0x00000b48       0x40 ../../wlan_bsp_cpu_high/mb_high/lib\libxil.a(xintc_options.o)
 .debug_frame   0x00000b88       0x88 ../../wlan_bsp_cpu_high/mb_high/lib\libxil.a(xgpio.o)
 .debug_frame   0x00000c10       0xc0 ../../wlan_bsp_cpu_high/mb_high/lib\libxil.a(xgpio_intr.o)
 .debug_frame   0x00000cd0       0x38 ../../wlan_bsp_cpu_high/mb_high/lib\libxil.a(xgpio_sinit.o)
 .debug_frame   0x00000d08       0xec ../../wlan_bsp_cpu_high/mb_high/lib\libxil.a(xtmrctr.o)
 .debug_frame   0x00000df4       0x44 ../../wlan_bsp_cpu_high/mb_high/lib\libxil.a(xtmrctr_intr.o)
 .debug_frame   0x00000e38       0x44 ../../wlan_bsp_cpu_high/mb_high/lib\libxil.a(xtmrctr_options.o)
 .debug_frame   0x00000e7c       0xc8 ../../wlan_bsp_cpu_high/mb_high/lib\libxil.a(xuartlite.o)
 .debug_frame   0x00000f44       0x8c ../../wlan_bsp_cpu_high/mb_high/lib\libxil.a(xuartlite_intr.o)
 .debug_frame   0x00000fd0       0x30 ../../wlan_bsp_cpu_high/mb_high/lib\libxil.a(xuartlite_l.o)
 .debug_frame   0x00001000       0x38 ../../wlan_bsp_cpu_high/mb_high/lib\libxil.a(xuartlite_sinit.o)
 .debug_frame   0x00001038       0x40 ../../wlan_bsp_cpu_high/mb_high/lib\libxil.a(xuartlite_stats.o)
 .debug_frame   0x00001078      0x184 ../../wlan_bsp_cpu_high/mb_high/lib\libxil.a(xmbox.o)
 .debug_frame   0x000011fc       0x20 ../../wlan_bsp_cpu_high/mb_high/lib\libxil.a(xmbox_sinit.o)
 .debug_frame   0x0000121c       0xd4 ../../wlan_bsp_cpu_high/mb_high/lib\libxil.a(xmutex.o)
 .debug_frame   0x000012f0       0x20 ../../wlan_bsp_cpu_high/mb_high/lib\libxil.a(xmutex_sinit.o)
 .debug_frame   0x00001310      0x174 ../../wlan_bsp_cpu_high/mb_high/lib\libxil.a(w3_iic_eeprom.o)
 .debug_frame   0x00001484       0x2c ../../wlan_bsp_cpu_high/mb_high/lib\libxil.a(print.o)
 .debug_frame   0x000014b0       0x48 ../../wlan_bsp_cpu_high/mb_high/lib\libxil.a(xbasic_types.o)
 .debug_frame   0x000014f8       0x38 ../../wlan_bsp_cpu_high/mb_high/lib\libxil.a(xil_assert.o)
 .debug_frame   0x00001530      0x154 ../../wlan_bsp_cpu_high/mb_high/lib\libxil.a(xaxicdma_bd.o)
 .debug_frame   0x00001684       0x2c c:/xilinx/14.4/ise_ds/edk/gnu/microblaze/nt64/bin/../lib/gcc/microblaze-xilinx-elf/4.6.2/bs/m/le\libgcc.a(_fixunsdfdi.o)
 .debug_frame   0x000016b0       0x30 c:/xilinx/14.4/ise_ds/edk/gnu/microblaze/nt64/bin/../lib/gcc/microblaze-xilinx-elf/4.6.2/bs/m/le\libgcc.a(_floatundidf.o)
 .debug_frame   0x000016e0       0x3c c:/xilinx/14.4/ise_ds/edk/gnu/microblaze/nt64/bin/../lib/gcc/microblaze-xilinx-elf/4.6.2/bs/m/le\libgcc.a(_udivdi3.o)
 .debug_frame   0x0000171c       0x3c c:/xilinx/14.4/ise_ds/edk/gnu/microblaze/nt64/bin/../lib/gcc/microblaze-xilinx-elf/4.6.2/bs/m/le\libgcc.a(_umoddi3.o)
 .debug_frame   0x00001758       0x60 c:/xilinx/14.4/ise_ds/edk/gnu/microblaze/nt64/bin/../lib/gcc/microblaze-xilinx-elf/4.6.2/bs/m/le\libgcc.a(_addsub_df.o)
 .debug_frame   0x000017b8       0x40 c:/xilinx/14.4/ise_ds/edk/gnu/microblaze/nt64/bin/../lib/gcc/microblaze-xilinx-elf/4.6.2/bs/m/le\libgcc.a(_mul_df.o)
 .debug_frame   0x000017f8       0x34 c:/xilinx/14.4/ise_ds/edk/gnu/microblaze/nt64/bin/../lib/gcc/microblaze-xilinx-elf/4.6.2/bs/m/le\libgcc.a(_div_df.o)
 .debug_frame   0x0000182c       0x2c c:/xilinx/14.4/ise_ds/edk/gnu/microblaze/nt64/bin/../lib/gcc/microblaze-xilinx-elf/4.6.2/bs/m/le\libgcc.a(_usi_to_df.o)
 .debug_frame   0x00001858       0x20 c:/xilinx/14.4/ise_ds/edk/gnu/microblaze/nt64/bin/../lib/gcc/microblaze-xilinx-elf/4.6.2/bs/m/le\libgcc.a(_muldi3.o)
 .debug_frame   0x00001878       0x20 c:/xilinx/14.4/ise_ds/edk/gnu/microblaze/nt64/bin/../lib/gcc/microblaze-xilinx-elf/4.6.2/bs/m/le\libgcc.a(_clzsi2.o)
 .debug_frame   0x00001898       0x2c c:/xilinx/14.4/ise_ds/edk/gnu/microblaze/nt64/bin/../lib/gcc/microblaze-xilinx-elf/4.6.2/bs/m/le\libgcc.a(_fixunsdfsi.o)
 .debug_frame   0x000018c4       0x30 c:/xilinx/14.4/ise_ds/edk/gnu/microblaze/nt64/bin/../lib/gcc/microblaze-xilinx-elf/4.6.2/bs/m/le\libgcc.a(_pack_df.o)
 .debug_frame   0x000018f4       0x20 c:/xilinx/14.4/ise_ds/edk/gnu/microblaze/nt64/bin/../lib/gcc/microblaze-xilinx-elf/4.6.2/bs/m/le\libgcc.a(_unpack_df.o)
 .debug_frame   0x00001914       0x28 c:/xilinx/14.4/ise_ds/edk/gnu/microblaze/nt64/bin/../lib/gcc/microblaze-xilinx-elf/4.6.2/bs/m/le\libgcc.a(_ge_df.o)
 .debug_frame   0x0000193c       0x28 c:/xilinx/14.4/ise_ds/edk/gnu/microblaze/nt64/bin/../lib/gcc/microblaze-xilinx-elf/4.6.2/bs/m/le\libgcc.a(_df_to_si.o)
 .debug_frame   0x00001964       0x20 c:/xilinx/14.4/ise_ds/edk/gnu/microblaze/nt64/bin/../lib/gcc/microblaze-xilinx-elf/4.6.2/bs/m/le\libgcc.a(_lshrdi3.o)
 .debug_frame   0x00001984       0x20 c:/xilinx/14.4/ise_ds/edk/gnu/microblaze/nt64/bin/../lib/gcc/microblaze-xilinx-elf/4.6.2/bs/m/le\libgcc.a(_ashldi3.o)
 .debug_frame   0x000019a4       0x20 c:/xilinx/14.4/ise_ds/edk/gnu/microblaze/nt64/bin/../lib/gcc/microblaze-xilinx-elf/4.6.2/bs/m/le\libgcc.a(_fpcmp_parts_df.o)
 .debug_frame   0x000019c4       0x20 ../../wlan_bsp_cpu_high/mb_high/lib\libxil.a(fstat.o)
 .debug_frame   0x000019e4       0x20 ../../wlan_bsp_cpu_high/mb_high/lib\libxil.a(isatty.o)
 .debug_frame   0x00001a04       0x28 ../../wlan_bsp_cpu_high/mb_high/lib\libxil.a(lseek.o)
 .debug_frame   0x00001a2c       0x28 ../../wlan_bsp_cpu_high/mb_high/lib\libxil.a(sbrk.o)
 .debug_frame   0x00001a54       0x2c ../../wlan_bsp_cpu_high/mb_high/lib\libxil.a(write.o)
 .debug_frame   0x00001a80       0x2c ../../wlan_bsp_cpu_high/mb_high/lib\libxil.a(read.o)
 .debug_frame   0x00001aac       0x20 ../../wlan_bsp_cpu_high/mb_high/lib\libxil.a(close.o)
 .debug_frame   0x00001acc       0x20 ../../wlan_bsp_cpu_high/mb_high/lib\libxil.a(errno.o)
 .debug_frame   0x00001aec       0x28 ../../wlan_bsp_cpu_high/mb_high/lib\libxil.a(inbyte.o)

.debug_loc      0x00000000     0xade6
 .debug_loc     0x00000000      0x4ef ../../wlan_bsp_cpu_high/mb_high/lib\libxil.a(xil_printf.o)
 .debug_loc     0x000004ef       0x21 ../../wlan_bsp_cpu_high/mb_high/lib\libxil.a(microblaze_interrupt_handler.o)
 .debug_loc     0x00000510       0x3e ../../wlan_bsp_cpu_high/mb_high/lib\libxil.a(outbyte.o)
 .debug_loc     0x0000054e       0x40 ../../wlan_bsp_cpu_high/mb_high/lib\libxil.a(xil_cache.o)
 .debug_loc     0x0000058e       0x8f ../../wlan_bsp_cpu_high/mb_high/lib\libxil.a(xil_exception.o)
 .debug_loc     0x0000061d      0x139 ../../wlan_bsp_cpu_high/mb_high/lib\libxil.a(xil_io.o)
 .debug_loc     0x00000756      0x4b5 ../../wlan_bsp_cpu_high/mb_high/lib\libxil.a(xaxicdma.o)
 .debug_loc     0x00000c0b      0xa02 ../../wlan_bsp_cpu_high/mb_high/lib\libxil.a(xaxicdma_bdring.o)
 .debug_loc     0x0000160d      0x14a ../../wlan_bsp_cpu_high/mb_high/lib\libxil.a(xaxicdma_intr.o)
 .debug_loc     0x00001757       0x3e ../../wlan_bsp_cpu_high/mb_high/lib\libxil.a(xaxicdma_sinit.o)
 .debug_loc     0x00001795      0x559 ../../wlan_bsp_cpu_high/mb_high/lib\libxil.a(xaxidma.o)
 .debug_loc     0x00001cee      0x17d ../../wlan_bsp_cpu_high/mb_high/lib\libxil.a(xaxidma_bd.o)
 .debug_loc     0x00001e6b      0xc74 ../../wlan_bsp_cpu_high/mb_high/lib\libxil.a(xaxidma_bdring.o)
 .debug_loc     0x00002adf       0x69 ../../wlan_bsp_cpu_high/mb_high/lib\libxil.a(xaxidma_sinit.o)
 .debug_loc     0x00002b48      0xda7 ../../wlan_bsp_cpu_high/mb_high/lib\libxil.a(xaxiethernet.o)
 .debug_loc     0x000038ef       0x69 ../../wlan_bsp_cpu_high/mb_high/lib\libxil.a(xaxiethernet_sinit.o)
 .debug_loc     0x00003958      0x885 ../../wlan_bsp_cpu_high/mb_high/lib\libxil.a(xintc.o)
 .debug_loc     0x000041dd      0x1de ../../wlan_bsp_cpu_high/mb_high/lib\libxil.a(xintc_l.o)
 .debug_loc     0x000043bb       0xdc ../../wlan_bsp_cpu_high/mb_high/lib\libxil.a(xintc_options.o)
 .debug_loc     0x00004497      0x2ec ../../wlan_bsp_cpu_high/mb_high/lib\libxil.a(xgpio.o)
 .debug_loc     0x00004783      0x324 ../../wlan_bsp_cpu_high/mb_high/lib\libxil.a(xgpio_intr.o)
 .debug_loc     0x00004aa7       0xf7 ../../wlan_bsp_cpu_high/mb_high/lib\libxil.a(xgpio_sinit.o)
 .debug_loc     0x00004b9e      0x59d ../../wlan_bsp_cpu_high/mb_high/lib\libxil.a(xtmrctr.o)
 .debug_loc     0x0000513b      0x162 ../../wlan_bsp_cpu_high/mb_high/lib\libxil.a(xtmrctr_intr.o)
 .debug_loc     0x0000529d      0x201 ../../wlan_bsp_cpu_high/mb_high/lib\libxil.a(xtmrctr_options.o)
 .debug_loc     0x0000549e      0x4c7 ../../wlan_bsp_cpu_high/mb_high/lib\libxil.a(xuartlite.o)
 .debug_loc     0x00005965      0x273 ../../wlan_bsp_cpu_high/mb_high/lib\libxil.a(xuartlite_intr.o)
 .debug_loc     0x00005bd8       0xf7 ../../wlan_bsp_cpu_high/mb_high/lib\libxil.a(xuartlite_sinit.o)
 .debug_loc     0x00005ccf       0xbb ../../wlan_bsp_cpu_high/mb_high/lib\libxil.a(xuartlite_stats.o)
 .debug_loc     0x00005d8a      0xc1f ../../wlan_bsp_cpu_high/mb_high/lib\libxil.a(xmbox.o)
 .debug_loc     0x000069a9       0x3e ../../wlan_bsp_cpu_high/mb_high/lib\libxil.a(xmbox_sinit.o)
 .debug_loc     0x000069e7      0x680 ../../wlan_bsp_cpu_high/mb_high/lib\libxil.a(xmutex.o)
 .debug_loc     0x00007067       0x3e ../../wlan_bsp_cpu_high/mb_high/lib\libxil.a(xmutex_sinit.o)
 .debug_loc     0x000070a5      0x9e9 ../../wlan_bsp_cpu_high/mb_high/lib\libxil.a(w3_iic_eeprom.o)
 .debug_loc     0x00007a8e       0x3e ../../wlan_bsp_cpu_high/mb_high/lib\libxil.a(print.o)
 .debug_loc     0x00007acc       0x46 ../../wlan_bsp_cpu_high/mb_high/lib\libxil.a(xbasic_types.o)
 .debug_loc     0x00007b12       0x46 ../../wlan_bsp_cpu_high/mb_high/lib\libxil.a(xil_assert.o)
 .debug_loc     0x00007b58       0xb1 ../../wlan_bsp_cpu_high/mb_high/lib\libxil.a(xaxicdma_bd.o)
 .debug_loc     0x00007c09       0x56 c:/xilinx/14.4/ise_ds/edk/gnu/microblaze/nt64/bin/../lib/gcc/microblaze-xilinx-elf/4.6.2/bs/m/le\libgcc.a(_fixunsdfdi.o)
 .debug_loc     0x00007c5f       0x38 c:/xilinx/14.4/ise_ds/edk/gnu/microblaze/nt64/bin/../lib/gcc/microblaze-xilinx-elf/4.6.2/bs/m/le\libgcc.a(_floatundidf.o)
 .debug_loc     0x00007c97      0xf21 c:/xilinx/14.4/ise_ds/edk/gnu/microblaze/nt64/bin/../lib/gcc/microblaze-xilinx-elf/4.6.2/bs/m/le\libgcc.a(_udivdi3.o)
 .debug_loc     0x00008bb8      0xd9c c:/xilinx/14.4/ise_ds/edk/gnu/microblaze/nt64/bin/../lib/gcc/microblaze-xilinx-elf/4.6.2/bs/m/le\libgcc.a(_umoddi3.o)
 .debug_loc     0x00009954      0x495 c:/xilinx/14.4/ise_ds/edk/gnu/microblaze/nt64/bin/../lib/gcc/microblaze-xilinx-elf/4.6.2/bs/m/le\libgcc.a(_addsub_df.o)
 .debug_loc     0x00009de9      0x43f c:/xilinx/14.4/ise_ds/edk/gnu/microblaze/nt64/bin/../lib/gcc/microblaze-xilinx-elf/4.6.2/bs/m/le\libgcc.a(_mul_df.o)
 .debug_loc     0x0000a228      0x23d c:/xilinx/14.4/ise_ds/edk/gnu/microblaze/nt64/bin/../lib/gcc/microblaze-xilinx-elf/4.6.2/bs/m/le\libgcc.a(_div_df.o)
 .debug_loc     0x0000a465       0xd8 c:/xilinx/14.4/ise_ds/edk/gnu/microblaze/nt64/bin/../lib/gcc/microblaze-xilinx-elf/4.6.2/bs/m/le\libgcc.a(_usi_to_df.o)
 .debug_loc     0x0000a53d       0xd2 c:/xilinx/14.4/ise_ds/edk/gnu/microblaze/nt64/bin/../lib/gcc/microblaze-xilinx-elf/4.6.2/bs/m/le\libgcc.a(_muldi3.o)
 .debug_loc     0x0000a60f       0x9c c:/xilinx/14.4/ise_ds/edk/gnu/microblaze/nt64/bin/../lib/gcc/microblaze-xilinx-elf/4.6.2/bs/m/le\libgcc.a(_clzsi2.o)
 .debug_loc     0x0000a6ab       0x38 c:/xilinx/14.4/ise_ds/edk/gnu/microblaze/nt64/bin/../lib/gcc/microblaze-xilinx-elf/4.6.2/bs/m/le\libgcc.a(_fixunsdfsi.o)
 .debug_loc     0x0000a6e3      0x1e1 c:/xilinx/14.4/ise_ds/edk/gnu/microblaze/nt64/bin/../lib/gcc/microblaze-xilinx-elf/4.6.2/bs/m/le\libgcc.a(_pack_df.o)
 .debug_loc     0x0000a8c4       0xb3 c:/xilinx/14.4/ise_ds/edk/gnu/microblaze/nt64/bin/../lib/gcc/microblaze-xilinx-elf/4.6.2/bs/m/le\libgcc.a(_unpack_df.o)
 .debug_loc     0x0000a977       0x51 c:/xilinx/14.4/ise_ds/edk/gnu/microblaze/nt64/bin/../lib/gcc/microblaze-xilinx-elf/4.6.2/bs/m/le\libgcc.a(_ge_df.o)
 .debug_loc     0x0000a9c8       0x59 c:/xilinx/14.4/ise_ds/edk/gnu/microblaze/nt64/bin/../lib/gcc/microblaze-xilinx-elf/4.6.2/bs/m/le\libgcc.a(_df_to_si.o)
 .debug_loc     0x0000aa21       0x77 c:/xilinx/14.4/ise_ds/edk/gnu/microblaze/nt64/bin/../lib/gcc/microblaze-xilinx-elf/4.6.2/bs/m/le\libgcc.a(_lshrdi3.o)
 .debug_loc     0x0000aa98       0x77 c:/xilinx/14.4/ise_ds/edk/gnu/microblaze/nt64/bin/../lib/gcc/microblaze-xilinx-elf/4.6.2/bs/m/le\libgcc.a(_ashldi3.o)
 .debug_loc     0x0000ab0f       0xdb c:/xilinx/14.4/ise_ds/edk/gnu/microblaze/nt64/bin/../lib/gcc/microblaze-xilinx-elf/4.6.2/bs/m/le\libgcc.a(_fpcmp_parts_df.o)
 .debug_loc     0x0000abea       0x59 ../../wlan_bsp_cpu_high/mb_high/lib\libxil.a(lseek.o)
 .debug_loc     0x0000ac43       0x51 ../../wlan_bsp_cpu_high/mb_high/lib\libxil.a(sbrk.o)
 .debug_loc     0x0000ac94       0xa4 ../../wlan_bsp_cpu_high/mb_high/lib\libxil.a(write.o)
 .debug_loc     0x0000ad38       0x8e ../../wlan_bsp_cpu_high/mb_high/lib\libxil.a(read.o)
 .debug_loc     0x0000adc6       0x20 ../../wlan_bsp_cpu_high/mb_high/lib\libxil.a(inbyte.o)

.debug_str      0x00000000     0x35ca
 .debug_str     0x00000000      0x1a9 ../../wlan_bsp_cpu_high/mb_high/lib\libxil.a(xil_printf.o)
                                0x1f7 (size before relaxing)
 .debug_str     0x000001a9      0x16a ../../wlan_bsp_cpu_high/mb_high/lib\libxil.a(microblaze_interrupt_handler.o)
                                0x1de (size before relaxing)
 .debug_str     0x00000313       0x1a ../../wlan_bsp_cpu_high/mb_high/lib\libxil.a(microblaze_interrupts_g.o)
                                0x1a1 (size before relaxing)
 .debug_str     0x0000032d       0x12 ../../wlan_bsp_cpu_high/mb_high/lib\libxil.a(outbyte.o)
                                0x163 (size before relaxing)
 .debug_str     0x0000033f       0x30 ../../wlan_bsp_cpu_high/mb_high/lib\libxil.a(xil_cache.o)
                                0x181 (size before relaxing)
 .debug_str     0x0000036f       0xe6 ../../wlan_bsp_cpu_high/mb_high/lib\libxil.a(xil_exception.o)
                                0x278 (size before relaxing)
 .debug_str     0x00000455       0x78 ../../wlan_bsp_cpu_high/mb_high/lib\libxil.a(xil_io.o)
                                0x1d9 (size before relaxing)
 .debug_str     0x000004cd      0x3c0 ../../wlan_bsp_cpu_high/mb_high/lib\libxil.a(xaxicdma.o)
                                0x4e3 (size before relaxing)
 .debug_str     0x0000088d      0x22a ../../wlan_bsp_cpu_high/mb_high/lib\libxil.a(xaxicdma_bdring.o)
                                0x598 (size before relaxing)
 .debug_str     0x00000ab7       0x71 ../../wlan_bsp_cpu_high/mb_high/lib\libxil.a(xaxicdma_intr.o)
                                0x3cf (size before relaxing)
 .debug_str     0x00000b28       0x3c ../../wlan_bsp_cpu_high/mb_high/lib\libxil.a(xaxicdma_sinit.o)
                                0x1f8 (size before relaxing)
 .debug_str     0x00000b64      0x2c5 ../../wlan_bsp_cpu_high/mb_high/lib\libxil.a(xaxidma.o)
                                0x46d (size before relaxing)
 .debug_str     0x00000e29       0xa2 ../../wlan_bsp_cpu_high/mb_high/lib\libxil.a(xaxidma_bd.o)
                                0x240 (size before relaxing)
 .debug_str     0x00000ecb      0x17f ../../wlan_bsp_cpu_high/mb_high/lib\libxil.a(xaxidma_bdring.o)
                                0x490 (size before relaxing)
 .debug_str     0x0000104a       0x39 ../../wlan_bsp_cpu_high/mb_high/lib\libxil.a(xaxidma_sinit.o)
                                0x24d (size before relaxing)
 .debug_str     0x00001083      0x468 ../../wlan_bsp_cpu_high/mb_high/lib\libxil.a(xaxiethernet.o)
                                0x599 (size before relaxing)
 .debug_str     0x000014eb       0x48 ../../wlan_bsp_cpu_high/mb_high/lib\libxil.a(xaxiethernet_sinit.o)
                                0x2bc (size before relaxing)
 .debug_str     0x00001533      0x22d ../../wlan_bsp_cpu_high/mb_high/lib\libxil.a(xintc.o)
                                0x37d (size before relaxing)
 .debug_str     0x00001760        0xa ../../wlan_bsp_cpu_high/mb_high/lib\libxil.a(xintc_g.o)
                                0x203 (size before relaxing)
 .debug_str     0x0000176a       0xdb ../../wlan_bsp_cpu_high/mb_high/lib\libxil.a(xintc_l.o)
                                0x32b (size before relaxing)
 .debug_str     0x00001845       0x32 ../../wlan_bsp_cpu_high/mb_high/lib\libxil.a(xintc_options.o)
                                0x276 (size before relaxing)
 .debug_str     0x00001877      0x13b ../../wlan_bsp_cpu_high/mb_high/lib\libxil.a(xgpio.o)
                                0x25e (size before relaxing)
 .debug_str     0x000019b2       0xbb ../../wlan_bsp_cpu_high/mb_high/lib\libxil.a(xgpio_intr.o)
                                0x270 (size before relaxing)
 .debug_str     0x00001a6d       0x44 ../../wlan_bsp_cpu_high/mb_high/lib\libxil.a(xgpio_sinit.o)
                                0x228 (size before relaxing)
 .debug_str     0x00001ab1      0x1d7 ../../wlan_bsp_cpu_high/mb_high/lib\libxil.a(xtmrctr.o)
                                0x336 (size before relaxing)
 .debug_str     0x00001c88        0xc ../../wlan_bsp_cpu_high/mb_high/lib\libxil.a(xtmrctr_g.o)
                                0x191 (size before relaxing)
 .debug_str     0x00001c94       0x4d ../../wlan_bsp_cpu_high/mb_high/lib\libxil.a(xtmrctr_intr.o)
                                0x250 (size before relaxing)
 .debug_str     0x00001ce1        0xc ../../wlan_bsp_cpu_high/mb_high/lib\libxil.a(xtmrctr_l.o)
                                0x169 (size before relaxing)
 .debug_str     0x00001ced       0x4d ../../wlan_bsp_cpu_high/mb_high/lib\libxil.a(xtmrctr_options.o)
                                0x26b (size before relaxing)
 .debug_str     0x00001d3a      0x2f5 ../../wlan_bsp_cpu_high/mb_high/lib\libxil.a(xuartlite.o)
                                0x457 (size before relaxing)
 .debug_str     0x0000202f       0xc8 ../../wlan_bsp_cpu_high/mb_high/lib\libxil.a(xuartlite_intr.o)
                                0x3b6 (size before relaxing)
 .debug_str     0x000020f7       0x34 ../../wlan_bsp_cpu_high/mb_high/lib\libxil.a(xuartlite_l.o)
                                0x194 (size before relaxing)
 .debug_str     0x0000212b       0x54 ../../wlan_bsp_cpu_high/mb_high/lib\libxil.a(xuartlite_sinit.o)
                                0x3a8 (size before relaxing)
 .debug_str     0x0000217f       0x43 ../../wlan_bsp_cpu_high/mb_high/lib\libxil.a(xuartlite_stats.o)
                                0x31d (size before relaxing)
 .debug_str     0x000021c2      0x200 ../../wlan_bsp_cpu_high/mb_high/lib\libxil.a(xmbox.o)
                                0x37e (size before relaxing)
 .debug_str     0x000023c2       0x33 ../../wlan_bsp_cpu_high/mb_high/lib\libxil.a(xmbox_sinit.o)
                                0x1d9 (size before relaxing)
 .debug_str     0x000023f5      0x15e ../../wlan_bsp_cpu_high/mb_high/lib\libxil.a(xmutex.o)
                                0x2c2 (size before relaxing)
 .debug_str     0x00002553       0x36 ../../wlan_bsp_cpu_high/mb_high/lib\libxil.a(xmutex_sinit.o)
                                0x1da (size before relaxing)
 .debug_str     0x00002589      0x299 ../../wlan_bsp_cpu_high/mb_high/lib\libxil.a(w3_iic_eeprom.o)
                                0x372 (size before relaxing)
 .debug_str     0x00002822       0x39 ../../wlan_bsp_cpu_high/mb_high/lib\libxil.a(print.o)
                                 0x83 (size before relaxing)
 .debug_str     0x0000285b      0x125 ../../wlan_bsp_cpu_high/mb_high/lib\libxil.a(xbasic_types.o)
                                0x1cf (size before relaxing)
 .debug_str     0x00002980       0x6a ../../wlan_bsp_cpu_high/mb_high/lib\libxil.a(xil_assert.o)
                                0x1de (size before relaxing)
 .debug_str     0x000029ea      0x1ad ../../wlan_bsp_cpu_high/mb_high/lib\libxil.a(xaxicdma_bd.o)
                                0x368 (size before relaxing)
 .debug_str     0x00002b97        0xd ../../wlan_bsp_cpu_high/mb_high/lib\libxil.a(xaxicdma_g.o)
                                0x1d7 (size before relaxing)
 .debug_str     0x00002ba4        0xc ../../wlan_bsp_cpu_high/mb_high/lib\libxil.a(xaxidma_g.o)
                                0x227 (size before relaxing)
 .debug_str     0x00002bb0       0x11 ../../wlan_bsp_cpu_high/mb_high/lib\libxil.a(xaxiethernet_g.o)
                                0x291 (size before relaxing)
 .debug_str     0x00002bc1        0xa ../../wlan_bsp_cpu_high/mb_high/lib\libxil.a(xgpio_g.o)
                                0x1a1 (size before relaxing)
 .debug_str     0x00002bcb        0xe ../../wlan_bsp_cpu_high/mb_high/lib\libxil.a(xuartlite_g.o)
                                0x1cc (size before relaxing)
 .debug_str     0x00002bd9        0xa ../../wlan_bsp_cpu_high/mb_high/lib\libxil.a(xmbox_g.o)
                                0x1b5 (size before relaxing)
 .debug_str     0x00002be3        0xb ../../wlan_bsp_cpu_high/mb_high/lib\libxil.a(xmutex_g.o)
                                0x1b5 (size before relaxing)
 .debug_str     0x00002bee       0xb8 c:/xilinx/14.4/ise_ds/edk/gnu/microblaze/nt64/bin/../lib/gcc/microblaze-xilinx-elf/4.6.2/bs/m/le\libgcc.a(_fixunsdfdi.o)
                                0x186 (size before relaxing)
 .debug_str     0x00002ca6        0xe c:/xilinx/14.4/ise_ds/edk/gnu/microblaze/nt64/bin/../lib/gcc/microblaze-xilinx-elf/4.6.2/bs/m/le\libgcc.a(_floatundidf.o)
                                0x187 (size before relaxing)
 .debug_str     0x00002cb4       0x8a c:/xilinx/14.4/ise_ds/edk/gnu/microblaze/nt64/bin/../lib/gcc/microblaze-xilinx-elf/4.6.2/bs/m/le\libgcc.a(_udivdi3.o)
                                0x20a (size before relaxing)
 .debug_str     0x00002d3e        0xa c:/xilinx/14.4/ise_ds/edk/gnu/microblaze/nt64/bin/../lib/gcc/microblaze-xilinx-elf/4.6.2/bs/m/le\libgcc.a(_umoddi3.o)
                                0x20a (size before relaxing)
 .debug_str     0x00002d48      0x14d c:/xilinx/14.4/ise_ds/edk/gnu/microblaze/nt64/bin/../lib/gcc/microblaze-xilinx-elf/4.6.2/bs/m/le\libgcc.a(_addsub_df.o)
                                0x28e (size before relaxing)
 .debug_str     0x00002e95       0x40 c:/xilinx/14.4/ise_ds/edk/gnu/microblaze/nt64/bin/../lib/gcc/microblaze-xilinx-elf/4.6.2/bs/m/le\libgcc.a(_mul_df.o)
                                0x260 (size before relaxing)
 .debug_str     0x00002ed5       0x35 c:/xilinx/14.4/ise_ds/edk/gnu/microblaze/nt64/bin/../lib/gcc/microblaze-xilinx-elf/4.6.2/bs/m/le\libgcc.a(_div_df.o)
                                0x250 (size before relaxing)
 .debug_str     0x00000000      0x1bf c:/xilinx/14.4/ise_ds/edk/gnu/microblaze/nt64/bin/../lib/gcc/microblaze-xilinx-elf/4.6.2/bs/m/le\libgcc.a(_thenan_df.o)
 .debug_str     0x00002f0a       0x2a c:/xilinx/14.4/ise_ds/edk/gnu/microblaze/nt64/bin/../lib/gcc/microblaze-xilinx-elf/4.6.2/bs/m/le\libgcc.a(_usi_to_df.o)
                                0x1ff (size before relaxing)
 .debug_str     0x00002f34        0x9 c:/xilinx/14.4/ise_ds/edk/gnu/microblaze/nt64/bin/../lib/gcc/microblaze-xilinx-elf/4.6.2/bs/m/le\libgcc.a(_muldi3.o)
                                0x1bf (size before relaxing)
 .debug_str     0x00000000      0x174 c:/xilinx/14.4/ise_ds/edk/gnu/microblaze/nt64/bin/../lib/gcc/microblaze-xilinx-elf/4.6.2/bs/m/le\libgcc.a(_clz.o)
 .debug_str     0x00000000      0x191 c:/xilinx/14.4/ise_ds/edk/gnu/microblaze/nt64/bin/../lib/gcc/microblaze-xilinx-elf/4.6.2/bs/m/le\libgcc.a(_clzsi2.o)
 .debug_str     0x00002f3d        0xd c:/xilinx/14.4/ise_ds/edk/gnu/microblaze/nt64/bin/../lib/gcc/microblaze-xilinx-elf/4.6.2/bs/m/le\libgcc.a(_fixunsdfsi.o)
                                0x185 (size before relaxing)
 .debug_str     0x00002f4a       0x10 c:/xilinx/14.4/ise_ds/edk/gnu/microblaze/nt64/bin/../lib/gcc/microblaze-xilinx-elf/4.6.2/bs/m/le\libgcc.a(_pack_df.o)
                                0x21d (size before relaxing)
 .debug_str     0x00002f5a        0xb c:/xilinx/14.4/ise_ds/edk/gnu/microblaze/nt64/bin/../lib/gcc/microblaze-xilinx-elf/4.6.2/bs/m/le\libgcc.a(_unpack_df.o)
                                0x1ff (size before relaxing)
 .debug_str     0x00002f65       0x10 c:/xilinx/14.4/ise_ds/edk/gnu/microblaze/nt64/bin/../lib/gcc/microblaze-xilinx-elf/4.6.2/bs/m/le\libgcc.a(_ge_df.o)
                                0x216 (size before relaxing)
 .debug_str     0x00002f75        0xa c:/xilinx/14.4/ise_ds/edk/gnu/microblaze/nt64/bin/../lib/gcc/microblaze-xilinx-elf/4.6.2/bs/m/le\libgcc.a(_df_to_si.o)
                                0x21e (size before relaxing)
 .debug_str     0x00002f7f       0x23 c:/xilinx/14.4/ise_ds/edk/gnu/microblaze/nt64/bin/../lib/gcc/microblaze-xilinx-elf/4.6.2/bs/m/le\libgcc.a(_lshrdi3.o)
                                0x1b1 (size before relaxing)
 .debug_str     0x00002fa2        0xa c:/xilinx/14.4/ise_ds/edk/gnu/microblaze/nt64/bin/../lib/gcc/microblaze-xilinx-elf/4.6.2/bs/m/le\libgcc.a(_ashldi3.o)
                                0x1b1 (size before relaxing)
 .debug_str     0x00002fac       0x10 c:/xilinx/14.4/ise_ds/edk/gnu/microblaze/nt64/bin/../lib/gcc/microblaze-xilinx-elf/4.6.2/bs/m/le\libgcc.a(_fpcmp_parts_df.o)
                                0x1e2 (size before relaxing)
 .debug_str     0x00002fbc      0x109 ../../wlan_bsp_cpu_high/mb_high/lib\libxil.a(fstat.o)
                                0x1ec (size before relaxing)
 .debug_str     0x000030c5       0x3b ../../wlan_bsp_cpu_high/mb_high/lib\libxil.a(isatty.o)
                                 0x78 (size before relaxing)
 .debug_str     0x00003100       0x40 ../../wlan_bsp_cpu_high/mb_high/lib\libxil.a(lseek.o)
                                0x11a (size before relaxing)
 .debug_str     0x00003140       0x57 ../../wlan_bsp_cpu_high/mb_high/lib\libxil.a(sbrk.o)
                                0x122 (size before relaxing)
 .debug_str     0x00003197       0x33 ../../wlan_bsp_cpu_high/mb_high/lib\libxil.a(write.o)
                                 0x82 (size before relaxing)
 .debug_str     0x000031ca       0x32 ../../wlan_bsp_cpu_high/mb_high/lib\libxil.a(read.o)
                                 0x80 (size before relaxing)
 .debug_str     0x000031fc       0x33 ../../wlan_bsp_cpu_high/mb_high/lib\libxil.a(close.o)
                                 0x76 (size before relaxing)
 .debug_str     0x0000322f      0x38b ../../wlan_bsp_cpu_high/mb_high/lib\libxil.a(errno.o)
                                0x520 (size before relaxing)
 .debug_str     0x000035ba       0x10 ../../wlan_bsp_cpu_high/mb_high/lib\libxil.a(inbyte.o)
                                0x161 (size before relaxing)
